

Microchip MPLAB XC8 Assembler V2.41 build 20230208172133 
                                                                                               Wed Sep 20 18:07:21 2023

Microchip MPLAB XC8 C Compiler v2.41 (Free license) build 20230208172133 Og1 
     1                           	processor	18F4620
     2                           	fnconf	rparam,??,?,0
     3                           	pagewidth 120
     4                           	opt	flic
     5                           	psect	idataCOMRAM,global,class=CODE,delta=1,noexec
     6                           	psect	smallconst,global,reloc=2,class=SMALLCONST,delta=1,noexec
     7                           	psect	nvCOMRAM,global,class=COMRAM,space=1,delta=1,lowdata,noexec
     8                           	psect	cinit,global,reloc=2,class=CODE,delta=1
     9                           	psect	bssCOMRAM,global,class=COMRAM,space=1,delta=1,lowdata,noexec
    10                           	psect	dataCOMRAM,global,class=COMRAM,space=1,delta=1,lowdata,noexec
    11                           	psect	cstackBANK0,global,class=BANK0,space=1,delta=1,lowdata,noexec
    12                           	psect	cstackCOMRAM,global,class=COMRAM,space=1,delta=1,lowdata,noexec
    13                           	psect	text0,global,reloc=2,class=CODE,delta=1
    14                           	psect	text1,global,reloc=2,class=CODE,delta=1
    15                           	psect	text2,global,reloc=2,class=CODE,delta=1
    16                           	psect	text3,global,reloc=2,class=CODE,delta=1
    17                           	psect	text4,global,reloc=2,class=CODE,delta=1
    18                           	psect	text5,global,reloc=2,class=CODE,delta=1
    19                           	psect	text6,global,reloc=2,class=CODE,delta=1
    20                           	psect	text7,global,reloc=2,class=CODE,delta=1
    21                           	psect	text8,global,reloc=2,class=CODE,delta=1
    22                           	psect	text9,global,reloc=2,class=CODE,delta=1
    23                           	psect	text10,global,reloc=2,class=CODE,delta=1
    24                           	psect	text11,global,reloc=2,class=CODE,delta=1
    25                           	psect	text12,global,reloc=2,class=CODE,delta=1
    26                           	psect	text13,global,reloc=2,class=CODE,delta=1
    27                           	psect	text14,global,reloc=2,class=CODE,delta=1
    28                           	psect	text15,global,reloc=2,class=CODE,delta=1
    29                           	psect	text16,global,reloc=2,class=CODE,delta=1
    30                           	psect	text17,global,reloc=2,class=CODE,delta=1
    31                           	psect	text18,global,reloc=2,class=CODE,delta=1
    32                           	psect	intcodelo,global,reloc=2,class=CODE,delta=1
    33                           	psect	text20,global,reloc=2,class=CODE,delta=1
    34                           	psect	intcode,global,reloc=2,class=CODE,delta=1
    35                           	psect	intcode_body,global,reloc=2,class=CODE,delta=1
    36                           	psect	text22,global,reloc=2,class=CODE,delta=1
    37                           	psect	text23,global,reloc=2,class=CODE,delta=1
    38                           	psect	text24,global,reloc=2,class=CODE,delta=1
    39                           	psect	text25,global,reloc=2,class=CODE,delta=1
    40                           	psect	text26,global,reloc=2,class=CODE,delta=1
    41                           	psect	text27,global,reloc=2,class=CODE,delta=1
    42                           	psect	text28,global,reloc=2,class=CODE,delta=1
    43                           	psect	text29,global,reloc=2,class=CODE,delta=1
    44                           	psect	text30,global,reloc=2,class=CODE,delta=1
    45                           	psect	intsave_regs,global,class=BIGRAM,space=1,delta=1,noexec
    46                           	psect	text31,global,reloc=2,class=CODE,delta=1
    47                           	psect	rparam,global,class=COMRAM,space=1,delta=1,noexec
    48                           	psect	temp,global,ovrld,common,class=COMRAM,space=1,delta=1
    49                           	psect	config,global,abs,ovrld,class=CONFIG,space=4,delta=1,noexec
    50   000000                     
    51                           ; Generated 23/03/2023 GMT
    52                           ; 
    53                           ; Copyright © 2023, Microchip Technology Inc. and its subsidiaries ("Microchip")
    54                           ; All rights reserved.
    55                           ; 
    56                           ; This software is developed by Microchip Technology Inc. and its subsidiaries ("Microch
      +                          ip").
    57                           ; 
    58                           ; Redistribution and use in source and binary forms, with or without modification, are
    59                           ; permitted provided that the following conditions are met:
    60                           ; 
    61                           ;     1. Redistributions of source code must retain the above copyright notice, this lis
      +                          t of
    62                           ;        conditions and the following disclaimer.
    63                           ; 
    64                           ;     2. Redistributions in binary form must reproduce the above copyright notice, this 
      +                          list
    65                           ;        of conditions and the following disclaimer in the documentation and/or other
    66                           ;        materials provided with the distribution. Publication is not required when
    67                           ;        this file is used in an embedded application.
    68                           ; 
    69                           ;     3. Microchip's name may not be used to endorse or promote products derived from th
      +                          is
    70                           ;        software without specific prior written permission.
    71                           ; 
    72                           ; THIS SOFTWARE IS PROVIDED BY MICROCHIP "AS IS" AND ANY EXPRESS OR IMPLIED WARRANTIES,
    73                           ; INCLUDING, BUT NOT LIMITED TO, THE IMPLIED WARRANTIES OF MERCHANTABILITY AND FITNESS F
      +                          OR
    74                           ; PURPOSE ARE DISCLAIMED.  IN NO EVENT SHALL MICROCHIP BE LIABLE FOR ANY DIRECT, INDIREC
      +                          T,
    75                           ; INCIDENTAL, SPECIAL, EXEMPLARY, OR CONSEQUENTIAL DAMAGES (INCLUDING BUT NOT LIMITED TO
    76                           ; PROCUREMENT OF SUBSTITUTE GOODS OR SERVICES; LOSS OF USE, DATA OR PROFITS; OR BUSINESS
    77                           ; INTERRUPTION) HOWSOEVER CAUSED AND ON ANY THEORY OF LIABILITY, WHETHER IN CONTRACT, ST
      +                          RICT
    78                           ; LIABILITY, OR TORT (INCLUDING NEGLIGENCE OR OTHERWISE) ARISING IN ANY WAY OUT OF THE U
      +                          SE OF
    79                           ; THIS SOFTWARE, EVEN IF ADVISED OF THE POSSIBILITY OF SUCH DAMAGE.
    80                           ; 
    81                           ; 
    82                           ; Code-generator required, PIC18F4620 Definitions
    83                           ; 
    84                           ; SFR Addresses
    85   000000                     
    86                           	psect	idataCOMRAM
    87   001DB6                     __pidataCOMRAM:
    88                           	callstack 0
    89                           
    90                           ;initializer for _PORT_REG
    91   001DB6  80                 	db	128
    92   001DB7  0F                 	db	15
    93   001DB8  81                 	db	129
    94   001DB9  0F                 	db	15
    95   001DBA  82                 	db	130
    96   001DBB  0F                 	db	15
    97   001DBC  83                 	db	131
    98   001DBD  0F                 	db	15
    99   001DBE  84                 	db	132
   100   001DBF  0F                 	db	15
   101                           
   102                           ;initializer for _TRIS_REG
   103   001DC0  92                 	db	146
   104   001DC1  0F                 	db	15
   105   001DC2  93                 	db	147
   106   001DC3  0F                 	db	15
   107   001DC4  94                 	db	148
   108   001DC5  0F                 	db	15
   109   001DC6  95                 	db	149
   110   001DC7  0F                 	db	15
   111   001DC8  96                 	db	150
   112   001DC9  0F                 	db	15
   113                           
   114                           ;initializer for _LAT_REG
   115   001DCA  89                 	db	137
   116   001DCB  0F                 	db	15
   117   001DCC  8A                 	db	138
   118   001DCD  0F                 	db	15
   119   001DCE  8B                 	db	139
   120   001DCF  0F                 	db	15
   121   001DD0  8C                 	db	140
   122   001DD1  0F                 	db	15
   123   001DD2  8D                 	db	141
   124   001DD3  0F                 	db	15
   125                           
   126                           ;initializer for _keypad_1
   127   001DD4  10                 	db	16
   128   001DD5  11                 	db	17
   129   001DD6  12                 	db	18
   130   001DD7  13                 	db	19
   131   001DD8  54                 	db	84
   132   001DD9  55                 	db	85
   133   001DDA  56                 	db	86
   134   001DDB  57                 	db	87
   135                           
   136                           ;initializer for _lcd_1
   137   001DDC  1C                 	db	28
   138   001DDD  1D                 	db	29
   139   001DDE  1E                 	db	30
   140   001DDF  1F                 	db	31
   141   001DE0  18                 	db	24
   142   001DE1  19                 	db	25
   143                           
   144                           ;initializer for _RB7_Flag
   145   001DE2  01                 	db	1
   146                           
   147                           ;initializer for _RB6_Flag
   148   001DE3  01                 	db	1
   149                           
   150                           ;initializer for _RB5_Flag
   151   001DE4  01                 	db	1
   152                           
   153                           ;initializer for _RB4_Flag
   154   001DE5  01                 	db	1
   155                           
   156                           ;initializer for _INT_0
   157   001DE6  F6                 	db	low _INTERRUPT_FUNC_0
   158   001DE7  1F                 	db	high _INTERRUPT_FUNC_0
   159   001DE8  48                 	db	72
   160   001DE9  00                 	db	0
   161   001DEA  01                 	db	1
   162   001DEB  00                 	db	0
   163                           
   164                           ;initializer for _led_2
   165   001DEC  22                 	db	34
   166                           
   167                           ;initializer for _led_1
   168   001DED  02                 	db	2
   169                           
   170                           	psect	smallconst
   171   001000                     __psmallconst:
   172                           	callstack 0
   173   001000  00                 	db	0
   174   001001                     _btn_values:
   175                           	callstack 0
   176   001001  37                 	db	55
   177   001002  38                 	db	56
   178   001003  39                 	db	57
   179   001004  2F                 	db	47
   180   001005  34                 	db	52
   181   001006  35                 	db	53
   182   001007  36                 	db	54
   183   001008  2A                 	db	42
   184   001009  31                 	db	49
   185   00100A  32                 	db	50
   186   00100B  33                 	db	51
   187   00100C  2D                 	db	45
   188   00100D  23                 	db	35
   189   00100E  30                 	db	48
   190   00100F  3D                 	db	61
   191   001010  2B                 	db	43
   192   001011                     __end_of_btn_values:
   193                           	callstack 0
   194   000000                     _EECON2	set	4007
   195   000000                     _INTCON2bits	set	4081
   196   001011  25                 	db	37
   197   001012  64                 	db	100	;'d'
   198   001013  00                 	db	0
   199   001014                     STR_2:
   200   001014  25                 	db	37
   201   001015  69                 	db	105	;'i'
   202   001016  00                 	db	0
   203   001017  00                 	db	0	; dummy byte at the end
   204   000000                     
   205                           	psect	nvCOMRAM
   206   000072                     __pnvCOMRAM:
   207                           	callstack 0
   208   000072                     _ret:
   209                           	callstack 0
   210   000072                     	ds	1
   211   000000                     _PORTBbits	set	3969
   212   000000                     _PORTE	set	3972
   213   000000                     _PORTD	set	3971
   214   000000                     _PORTC	set	3970
   215   000000                     _PORTB	set	3969
   216   000000                     _PORTA	set	3968
   217   000000                     _LATA	set	3977
   218   000000                     _TRISA	set	3986
   219   000000                     _LATE	set	3981
   220   000000                     _LATD	set	3980
   221   000000                     _LATC	set	3979
   222   000000                     _LATB	set	3978
   223   000000                     _EECON1bits	set	4006
   224   000000                     _EEDATA	set	4008
   225   000000                     _EEADR	set	4009
   226   000000                     _RCONbits	set	4048
   227   000000                     _INTCON3bits	set	4080
   228   000000                     _INTCONbits	set	4082
   229   000000                     _TRISE	set	3990
   230   000000                     _TRISD	set	3989
   231   000000                     _TRISC	set	3988
   232   000000                     _TRISB	set	3987
   233   000000                     _EEADRH	set	4010
   234                           
   235                           ; #config settings
   236                           
   237                           	psect	cinit
   238   001F06                     __pcinit:
   239                           	callstack 0
   240   001F06                     start_initialization:
   241                           	callstack 0
   242   001F06                     __initialization:
   243                           	callstack 0
   244                           
   245                           ; Initialize objects allocated to COMRAM (56 bytes)
   246                           ; load TBLPTR registers with __pidataCOMRAM
   247   001F06  0EB6               	movlw	low __pidataCOMRAM
   248   001F08  6EF6               	movwf	tblptrl,c
   249   001F0A  0E1D               	movlw	high __pidataCOMRAM
   250   001F0C  6EF7               	movwf	tblptrh,c
   251   001F0E  0E00               	movlw	low (__pidataCOMRAM shr (0+16))
   252   001F10  6EF8               	movwf	tblptru,c
   253   001F12  EE00  F001         	lfsr	0,__pdataCOMRAM
   254   001F16  EE10 F038          	lfsr	1,56
   255   001F1A                     copy_data0:
   256   001F1A  0009               	tblrd		*+
   257   001F1C  CFF5 FFEE          	movff	tablat,postinc0
   258   001F20  50E5               	movf	postdec1,w,c
   259   001F22  50E1               	movf	fsr1l,w,c
   260   001F24  E1FA               	bnz	copy_data0
   261                           
   262                           ; Clear objects allocated to COMRAM (30 bytes)
   263   001F26  EE00  F039         	lfsr	0,__pbssCOMRAM
   264   001F2A  0E1E               	movlw	30
   265   001F2C                     clear_0:
   266   001F2C  6AEE               	clrf	postinc0,c
   267   001F2E  06E8               	decf	wreg,f,c
   268   001F30  E1FD               	bnz	clear_0
   269   001F32                     end_of_initialization:
   270                           	callstack 0
   271   001F32                     __end_of__initialization:
   272                           	callstack 0
   273   001F32  9073               	bcf	int$flags,0,c	;clear compiler interrupt flag (level 1)
   274   001F34  9273               	bcf	int$flags,1,c	;clear compiler interrupt flag (level 2)
   275   001F36  0100               	movlb	0
   276   001F38  EF0A  F00B         	goto	_main	;jump to C main() function
   277                           
   278                           	psect	bssCOMRAM
   279   000039                     __pbssCOMRAM:
   280                           	callstack 0
   281   000039                     _RB7_InterruptHandler_LOW:
   282                           	callstack 0
   283   000039                     	ds	2
   284   00003B                     _RB7_InterruptHandler_HIGH:
   285                           	callstack 0
   286   00003B                     	ds	2
   287   00003D                     _RB6_InterruptHandler_LOW:
   288                           	callstack 0
   289   00003D                     	ds	2
   290   00003F                     _RB6_InterruptHandler_HIGH:
   291                           	callstack 0
   292   00003F                     	ds	2
   293   000041                     _RB5_InterruptHandler_LOW:
   294                           	callstack 0
   295   000041                     	ds	2
   296   000043                     _RB5_InterruptHandler_HIGH:
   297                           	callstack 0
   298   000043                     	ds	2
   299   000045                     _RB4_InterruptHandler_LOW:
   300                           	callstack 0
   301   000045                     	ds	2
   302   000047                     _RB4_InterruptHandler_HIGH:
   303                           	callstack 0
   304   000047                     	ds	2
   305   000049                     _INT2_InterruptHandler:
   306                           	callstack 0
   307   000049                     	ds	2
   308   00004B                     _INT1_InterruptHandler:
   309                           	callstack 0
   310   00004B                     	ds	2
   311   00004D                     _INT0_InterruptHandler:
   312                           	callstack 0
   313   00004D                     	ds	2
   314   00004F                     relay_off@F3052:
   315                           	callstack 0
   316   00004F                     	ds	1
   317   000050                     relay_on@F3047:
   318                           	callstack 0
   319   000050                     	ds	1
   320   000051                     relay_initialize@F3042:
   321                           	callstack 0
   322   000051                     	ds	1
   323   000052                     led_toggle@F3063:
   324                           	callstack 0
   325   000052                     	ds	1
   326   000053                     led_turn_off@F3058:
   327                           	callstack 0
   328   000053                     	ds	1
   329   000054                     led_turn_on@F3053:
   330                           	callstack 0
   331   000054                     	ds	1
   332   000055                     led_intialize@F3048:
   333                           	callstack 0
   334   000055                     	ds	1
   335   000056                     _program_number:
   336                           	callstack 0
   337   000056                     	ds	1
   338                           
   339                           	psect	dataCOMRAM
   340   000001                     __pdataCOMRAM:
   341                           	callstack 0
   342   000001                     _PORT_REG:
   343                           	callstack 0
   344   000001                     	ds	10
   345   00000B                     _TRIS_REG:
   346                           	callstack 0
   347   00000B                     	ds	10
   348   000015                     _LAT_REG:
   349                           	callstack 0
   350   000015                     	ds	10
   351   00001F                     _keypad_1:
   352                           	callstack 0
   353   00001F                     	ds	8
   354   000027                     _lcd_1:
   355                           	callstack 0
   356   000027                     	ds	6
   357   00002D                     _RB7_Flag:
   358                           	callstack 0
   359   00002D                     	ds	1
   360   00002E                     _RB6_Flag:
   361                           	callstack 0
   362   00002E                     	ds	1
   363   00002F                     _RB5_Flag:
   364                           	callstack 0
   365   00002F                     	ds	1
   366   000030                     _RB4_Flag:
   367                           	callstack 0
   368   000030                     	ds	1
   369   000031                     _INT_0:
   370                           	callstack 0
   371   000031                     	ds	6
   372   000037                     _led_2:
   373                           	callstack 0
   374   000037                     	ds	1
   375   000038                     _led_1:
   376                           	callstack 0
   377   000038                     	ds	1
   378                           
   379                           	psect	cstackBANK0
   380   000080                     __pcstackBANK0:
   381                           	callstack 0
   382   000080                     ??_led_intialize:
   383                           
   384                           ; 1 bytes @ 0x0
   385   000080                     	ds	1
   386   000081                     led_intialize@LED_IN:
   387                           	callstack 0
   388                           
   389                           ; 1 bytes @ 0x1
   390   000081                     	ds	1
   391   000082                     ??_main:
   392                           
   393                           ; 1 bytes @ 0x2
   394   000082                     	ds	2
   395                           
   396                           	psect	cstackCOMRAM
   397   000057                     __pcstackCOMRAM:
   398                           	callstack 0
   399   000057                     ??_RB4_ISR:
   400   000057                     ??_RB5_ISR:
   401   000057                     ??_RB6_ISR:
   402   000057                     ??i2_RB7_ISR:
   403   000057                     EEPROM_WRITE_DATA@address:
   404                           	callstack 0
   405                           
   406                           ; 2 bytes @ 0x0
   407   000057                     	ds	2
   408   000059                     RB4_ISR@FUNC_DETECTION:
   409                           	callstack 0
   410   000059                     RB5_ISR@FUNC_DETECTION:
   411                           	callstack 0
   412   000059                     RB6_ISR@FUNC_DETECTION:
   413                           	callstack 0
   414   000059                     EEPROM_WRITE_DATA@data:
   415                           	callstack 0
   416   000059                     i2RB7_ISR@FUNC_DETECTION:
   417                           	callstack 0
   418                           
   419                           ; 1 bytes @ 0x2
   420   000059                     	ds	1
   421   00005A                     EEPROM_WRITE_DATA@Interrupt_status:
   422                           	callstack 0
   423                           
   424                           ; 1 bytes @ 0x3
   425   00005A                     	ds	1
   426   00005B                     ??_InterruptManagerHigh:
   427   00005B                     
   428                           ; 1 bytes @ 0x4
   429   00005B                     	ds	2
   430   00005D                     ??_RB7_ISR:
   431                           
   432                           ; 1 bytes @ 0x6
   433   00005D                     	ds	2
   434   00005F                     RB7_ISR@FUNC_DETECTION:
   435                           	callstack 0
   436                           
   437                           ; 1 bytes @ 0x8
   438   00005F                     	ds	1
   439   000060                     ??_LOW_PRIORITY_INTERRUPTS:
   440                           
   441                           ; 1 bytes @ 0x9
   442   000060                     	ds	3
   443   000063                     gpio_pin_direction_intialize@str:
   444                           	callstack 0
   445   000063                     gpio_pin_write_logic@str:
   446                           	callstack 0
   447   000063                     EXT_INTX_Enable@INT_X:
   448                           	callstack 0
   449   000063                     EXT_INTX_Disable_Helper@INT_X:
   450                           	callstack 0
   451   000063                     EXT_INTX_Clear_Flag@INT_X:
   452                           	callstack 0
   453   000063                     EXT_INTX_Edge_Set@INT_X:
   454                           	callstack 0
   455   000063                     EXT_INTX_Prioity_Set@INT_X:
   456                           	callstack 0
   457   000063                     INT0_SetInterruptHandler@InterruptHandler:
   458                           	callstack 0
   459   000063                     INT1_SetInterruptHandler@InterruptHandler:
   460                           	callstack 0
   461   000063                     INT2_SetInterruptHandler@InterruptHandler:
   462                           	callstack 0
   463   000063                     EEPROM_READ_DATA@address:
   464                           	callstack 0
   465                           
   466                           ; 2 bytes @ 0xC
   467   000063                     	ds	2
   468   000065                     ??_gpio_pin_direction_intialize:
   469   000065                     ??_EXT_INTX_Disable_Helper:
   470   000065                     ??_EXT_INTX_Clear_Flag:
   471   000065                     ??_EXT_INTX_Edge_Set:
   472   000065                     ??_EXT_INTX_Prioity_Set:
   473   000065                     ??_EXT_INTX_Enable:
   474   000065                     gpio_pin_write_logic@LOG:
   475                           	callstack 0
   476   000065                     EXT_INTX_Function_Initialize@INT_X:
   477                           	callstack 0
   478   000065                     EEPROM_READ_DATA@data:
   479                           	callstack 0
   480                           
   481                           ; 2 bytes @ 0xE
   482   000065                     	ds	1
   483   000066                     ??_gpio_pin_write_logic:
   484                           
   485                           ; 1 bytes @ 0xF
   486   000066                     	ds	1
   487   000067                     ??_EXT_INTX_Function_Initialize:
   488   000067                     EEPROM_READ_DATA@Interrupt_status:
   489                           	callstack 0
   490                           
   491                           ; 1 bytes @ 0x10
   492   000067                     	ds	2
   493   000069                     EXT_INTX_Function_Initialize@ret:
   494                           	callstack 0
   495                           
   496                           ; 1 bytes @ 0x12
   497   000069                     	ds	2
   498   00006B                     EXT_INTX_Pin_Initialize@INT_X:
   499                           	callstack 0
   500                           
   501                           ; 2 bytes @ 0x14
   502   00006B                     	ds	1
   503   00006C                     led_turn_on@LED_CONFIG:
   504                           	callstack 0
   505   00006C                     led_turn_off@LED_CONFIG:
   506                           	callstack 0
   507   00006C                     gpio_pin_intialize@str:
   508                           	callstack 0
   509                           
   510                           ; 2 bytes @ 0x15
   511   00006C                     	ds	1
   512   00006D                     EXT_INTX_Pin_Initialize@ret:
   513                           	callstack 0
   514                           
   515                           ; 1 bytes @ 0x16
   516   00006D                     	ds	1
   517   00006E                     ??_gpio_pin_intialize:
   518   00006E                     ??_led_turn_on:
   519   00006E                     ??_led_turn_off:
   520   00006E                     EXT_INTX_Intialize@INT_X:
   521                           	callstack 0
   522                           
   523                           ; 2 bytes @ 0x17
   524   00006E                     	ds	1
   525   00006F                     led_turn_on@LED_IN:
   526                           	callstack 0
   527   00006F                     led_turn_off@LED_IN:
   528                           	callstack 0
   529   00006F                     gpio_pin_intialize@ret:
   530                           	callstack 0
   531                           
   532                           ; 1 bytes @ 0x18
   533   00006F                     	ds	1
   534   000070                     EXT_INTX_Intialize@ret:
   535                           	callstack 0
   536   000070                     led_intialize@LED_CONFIG:
   537                           	callstack 0
   538                           
   539                           ; 2 bytes @ 0x19
   540   000070                     	ds	2
   541                           
   542 ;;
   543 ;;Main: autosize = 0, tempsize = 2, incstack = 0, save=0
   544 ;;
   545 ;; *************** function _main *****************
   546 ;; Defined at:
   547 ;;		line 49 in file "Application.c"
   548 ;; Parameters:    Size  Location     Type
   549 ;;		None
   550 ;; Auto vars:     Size  Location     Type
   551 ;;		None
   552 ;; Return value:  Size  Location     Type
   553 ;;                  2  888[None  ] int 
   554 ;; Registers used:
   555 ;;		wreg, fsr2l, fsr2h, status,2, status,0, prodl, prodh, cstack
   556 ;; Tracked objects:
   557 ;;		On entry : 0/0
   558 ;;		On exit  : 0/0
   559 ;;		Unchanged: 0/0
   560 ;; Data sizes:     COMRAM   BANK0   BANK1   BANK2   BANK3   BANK4   BANK5   BANK6   BANK7   BANK8   BANK9  BANK10  BANK1
      +1  BANK12  BANK13  BANK14  BANK15
   561 ;;      Params:         0       0       0       0       0       0       0       0       0       0       0       0       
      +0       0       0       0       0
   562 ;;      Locals:         0       0       0       0       0       0       0       0       0       0       0       0       
      +0       0       0       0       0
   563 ;;      Temps:          0       2       0       0       0       0       0       0       0       0       0       0       
      +0       0       0       0       0
   564 ;;      Totals:         0       2       0       0       0       0       0       0       0       0       0       0       
      +0       0       0       0       0
   565 ;;Total ram usage:        2 bytes
   566 ;; Hardware stack levels required when called: 9
   567 ;; This function calls:
   568 ;;		_EEPROM_READ_DATA
   569 ;;		_EXT_INTX_Intialize
   570 ;;		_led_intialize
   571 ;;		_led_turn_off
   572 ;;		_led_turn_on
   573 ;; This function is called by:
   574 ;;		Startup code after reset
   575 ;; This function uses a non-reentrant model
   576 ;;
   577                           
   578                           	psect	text0
   579   001614                     __ptext0:
   580                           	callstack 0
   581   001614                     _main:
   582                           	callstack 22
   583   001614                     
   584                           ;Application.c: 50:     ret = EXT_INTX_Intialize(&INT_0);
   585   001614  0E31               	movlw	low _INT_0
   586   001616  6E6E               	movwf	EXT_INTX_Intialize@INT_X^0,c
   587   001618  0E00               	movlw	high _INT_0
   588   00161A  6E6F               	movwf	(EXT_INTX_Intialize@INT_X+1)^0,c
   589   00161C  ECB3  F00D         	call	_EXT_INTX_Intialize	;wreg free
   590   001620  6E72               	movwf	_ret^0,c
   591                           
   592                           ;Application.c: 51:     ret = led_intialize(&led_1);
   593   001622  0E38               	movlw	low _led_1
   594   001624  6E70               	movwf	led_intialize@LED_CONFIG^0,c
   595   001626  0E00               	movlw	high _led_1
   596   001628  6E71               	movwf	(led_intialize@LED_CONFIG+1)^0,c
   597   00162A  EC66  F00D         	call	_led_intialize	;wreg free
   598   00162E  6E72               	movwf	_ret^0,c
   599                           
   600                           ;Application.c: 52:     ret = led_intialize(&led_2);
   601   001630  0E37               	movlw	low _led_2
   602   001632  6E70               	movwf	led_intialize@LED_CONFIG^0,c
   603   001634  0E00               	movlw	high _led_2
   604   001636  6E71               	movwf	(led_intialize@LED_CONFIG+1)^0,c
   605   001638  EC66  F00D         	call	_led_intialize	;wreg free
   606   00163C  6E72               	movwf	_ret^0,c
   607   00163E                     
   608                           ;Application.c: 53:     ret = EEPROM_READ_DATA(0x3FF , &program_number);
   609   00163E  0E03               	movlw	3
   610   001640  6E64               	movwf	(EEPROM_READ_DATA@address+1)^0,c
   611   001642  6863               	setf	EEPROM_READ_DATA@address^0,c
   612   001644  0E56               	movlw	low _program_number
   613   001646  6E65               	movwf	EEPROM_READ_DATA@data^0,c
   614   001648  0E00               	movlw	high _program_number
   615   00164A  6E66               	movwf	(EEPROM_READ_DATA@data+1)^0,c
   616   00164C  EC8E  F00E         	call	_EEPROM_READ_DATA	;wreg free
   617   001650  6E72               	movwf	_ret^0,c
   618   001652                     l5276:
   619                           
   620                           ;Application.c: 56:         if(1 == program_number){
   621   001652  0456               	decf	_program_number^0,w,c	;volatile
   622   001654  A4D8               	btfss	status,2,c
   623   001656  EF2F  F00B         	goto	u4431
   624   00165A  EF31  F00B         	goto	u4430
   625   00165E                     u4431:
   626   00165E  EF59  F00B         	goto	l5284
   627   001662                     u4430:
   628   001662                     
   629                           ;Application.c: 57:             ret = led_turn_on(&led_1);
   630   001662  0E38               	movlw	low _led_1
   631   001664  6E6C               	movwf	led_turn_on@LED_CONFIG^0,c
   632   001666  0E00               	movlw	high _led_1
   633   001668  6E6D               	movwf	(led_turn_on@LED_CONFIG+1)^0,c
   634   00166A  ECCC  F00C         	call	_led_turn_on	;wreg free
   635   00166E  6E72               	movwf	_ret^0,c
   636   001670                     
   637                           ;Application.c: 58:             _delay((unsigned long)((250)*(8000000U/4000.0)));
   638   001670  0E03               	movlw	3
   639   001672  0100               	movlb	0	; () banked
   640   001674  6F83               	movwf	(??_main+1)& (0+255),b
   641   001676  0E8A               	movlw	138
   642   001678  6F82               	movwf	??_main& (0+255),b
   643   00167A  0E55               	movlw	85
   644   00167C                     u4457:
   645   00167C  2EE8               	decfsz	wreg,f,c
   646   00167E  D7FE               	bra	u4457
   647   001680  2F82               	decfsz	??_main& (0+255),f,b
   648   001682  D7FC               	bra	u4457
   649   001684  2F83               	decfsz	(??_main+1)& (0+255),f,b
   650   001686  D7FA               	bra	u4457
   651   001688  D000               	nop2	
   652   00168A                     
   653                           ;Application.c: 59:             ret = led_turn_off(&led_1);
   654   00168A  0E38               	movlw	low _led_1
   655   00168C  6E6C               	movwf	led_turn_off@LED_CONFIG^0,c
   656   00168E  0E00               	movlw	high _led_1
   657   001690  6E6D               	movwf	(led_turn_off@LED_CONFIG+1)^0,c
   658   001692  EC19  F00D         	call	_led_turn_off	;wreg free
   659   001696  6E72               	movwf	_ret^0,c
   660                           
   661                           ;Application.c: 60:             _delay((unsigned long)((250)*(8000000U/4000.0)));
   662   001698  0E03               	movlw	3
   663   00169A  0100               	movlb	0	; () banked
   664   00169C  6F83               	movwf	(??_main+1)& (0+255),b
   665   00169E  0E8A               	movlw	138
   666   0016A0  6F82               	movwf	??_main& (0+255),b
   667   0016A2  0E55               	movlw	85
   668   0016A4                     u4467:
   669   0016A4  2EE8               	decfsz	wreg,f,c
   670   0016A6  D7FE               	bra	u4467
   671   0016A8  2F82               	decfsz	??_main& (0+255),f,b
   672   0016AA  D7FC               	bra	u4467
   673   0016AC  2F83               	decfsz	(??_main+1)& (0+255),f,b
   674   0016AE  D7FA               	bra	u4467
   675   0016B0  D000               	nop2	
   676   0016B2                     l5284:
   677                           
   678                           ;Application.c: 63:         if(2 == program_number){
   679   0016B2  0E02               	movlw	2
   680   0016B4  1856               	xorwf	_program_number^0,w,c	;volatile
   681   0016B6  A4D8               	btfss	status,2,c
   682   0016B8  EF60  F00B         	goto	u4441
   683   0016BC  EF62  F00B         	goto	u4440
   684   0016C0                     u4441:
   685   0016C0  EF29  F00B         	goto	l5276
   686   0016C4                     u4440:
   687   0016C4                     
   688                           ;Application.c: 64:             ret = led_turn_on(&led_2);
   689   0016C4  0E37               	movlw	low _led_2
   690   0016C6  6E6C               	movwf	led_turn_on@LED_CONFIG^0,c
   691   0016C8  0E00               	movlw	high _led_2
   692   0016CA  6E6D               	movwf	(led_turn_on@LED_CONFIG+1)^0,c
   693   0016CC  ECCC  F00C         	call	_led_turn_on	;wreg free
   694   0016D0  6E72               	movwf	_ret^0,c
   695   0016D2                     
   696                           ;Application.c: 65:             _delay((unsigned long)((250)*(8000000U/4000.0)));
   697   0016D2  0E03               	movlw	3
   698   0016D4  0100               	movlb	0	; () banked
   699   0016D6  6F83               	movwf	(??_main+1)& (0+255),b
   700   0016D8  0E8A               	movlw	138
   701   0016DA  6F82               	movwf	??_main& (0+255),b
   702   0016DC  0E55               	movlw	85
   703   0016DE                     u4477:
   704   0016DE  2EE8               	decfsz	wreg,f,c
   705   0016E0  D7FE               	bra	u4477
   706   0016E2  2F82               	decfsz	??_main& (0+255),f,b
   707   0016E4  D7FC               	bra	u4477
   708   0016E6  2F83               	decfsz	(??_main+1)& (0+255),f,b
   709   0016E8  D7FA               	bra	u4477
   710   0016EA  D000               	nop2	
   711   0016EC                     
   712                           ;Application.c: 66:             ret = led_turn_off(&led_2);
   713   0016EC  0E37               	movlw	low _led_2
   714   0016EE  6E6C               	movwf	led_turn_off@LED_CONFIG^0,c
   715   0016F0  0E00               	movlw	high _led_2
   716   0016F2  6E6D               	movwf	(led_turn_off@LED_CONFIG+1)^0,c
   717   0016F4  EC19  F00D         	call	_led_turn_off	;wreg free
   718   0016F8  6E72               	movwf	_ret^0,c
   719                           
   720                           ;Application.c: 67:             _delay((unsigned long)((250)*(8000000U/4000.0)));
   721   0016FA  0E03               	movlw	3
   722   0016FC  0100               	movlb	0	; () banked
   723   0016FE  6F83               	movwf	(??_main+1)& (0+255),b
   724   001700  0E8A               	movlw	138
   725   001702  6F82               	movwf	??_main& (0+255),b
   726   001704  0E55               	movlw	85
   727   001706                     u4487:
   728   001706  2EE8               	decfsz	wreg,f,c
   729   001708  D7FE               	bra	u4487
   730   00170A  2F82               	decfsz	??_main& (0+255),f,b
   731   00170C  D7FC               	bra	u4487
   732   00170E  2F83               	decfsz	(??_main+1)& (0+255),f,b
   733   001710  D7FA               	bra	u4487
   734   001712  D000               	nop2	
   735   001714  EF29  F00B         	goto	l5276
   736   001718  EF5F  F000         	goto	start
   737   00171C                     __end_of_main:
   738                           	callstack 0
   739                           
   740 ;; *************** function _led_turn_on *****************
   741 ;; Defined at:
   742 ;;		line 32 in file "ECU_Layer/LED/ecu_led.c"
   743 ;; Parameters:    Size  Location     Type
   744 ;;  LED_CONFIG      2   21[COMRAM] PTR struct .
   745 ;;		 -> led_2(1), led_1(1), 
   746 ;; Auto vars:     Size  Location     Type
   747 ;;  LED_IN          1   24[COMRAM] struct .
   748 ;;  ret             1    0        unsigned char 
   749 ;; Return value:  Size  Location     Type
   750 ;;                  1    wreg      unsigned char 
   751 ;; Registers used:
   752 ;;		wreg, fsr2l, fsr2h, status,2, status,0, prodl, prodh, cstack
   753 ;; Tracked objects:
   754 ;;		On entry : 0/0
   755 ;;		On exit  : 0/0
   756 ;;		Unchanged: 0/0
   757 ;; Data sizes:     COMRAM   BANK0   BANK1   BANK2   BANK3   BANK4   BANK5   BANK6   BANK7   BANK8   BANK9  BANK10  BANK1
      +1  BANK12  BANK13  BANK14  BANK15
   758 ;;      Params:         2       0       0       0       0       0       0       0       0       0       0       0       
      +0       0       0       0       0
   759 ;;      Locals:         1       0       0       0       0       0       0       0       0       0       0       0       
      +0       0       0       0       0
   760 ;;      Temps:          1       0       0       0       0       0       0       0       0       0       0       0       
      +0       0       0       0       0
   761 ;;      Totals:         4       0       0       0       0       0       0       0       0       0       0       0       
      +0       0       0       0       0
   762 ;;Total ram usage:        4 bytes
   763 ;; Hardware stack levels used: 1
   764 ;; Hardware stack levels required when called: 7
   765 ;; This function calls:
   766 ;;		_gpio_pin_write_logic
   767 ;; This function is called by:
   768 ;;		_main
   769 ;; This function uses a non-reentrant model
   770 ;;
   771                           
   772                           	psect	text1
   773   001998                     __ptext1:
   774                           	callstack 0
   775   001998                     _led_turn_on:
   776                           	callstack 23
   777   001998                     
   778                           ;ECU_Layer/LED/ecu_led.c: 34:     if(LED_CONFIG == ((void*)0) || (LED_CONFIG->PIN_L > 7)
      +                          ){
   779   001998  506C               	movf	led_turn_on@LED_CONFIG^0,w,c
   780   00199A  106D               	iorwf	(led_turn_on@LED_CONFIG+1)^0,w,c
   781   00199C  B4D8               	btfsc	status,2,c
   782   00199E  EFD3  F00C         	goto	u3931
   783   0019A2  EFD5  F00C         	goto	u3930
   784   0019A6                     u3931:
   785   0019A6  EFE5  F00C         	goto	l4732
   786   0019AA                     u3930:
   787   0019AA  C06C  FFD9         	movff	led_turn_on@LED_CONFIG,fsr2l
   788   0019AE  C06D  FFDA         	movff	led_turn_on@LED_CONFIG+1,fsr2h
   789   0019B2  38DF               	swapf	223,w,c
   790   0019B4  32E8               	rrcf	wreg,f,c
   791   0019B6  0B07               	andlw	7
   792   0019B8  6E6E               	movwf	??_led_turn_on^0,c
   793   0019BA  0E07               	movlw	7
   794   0019BC  646E               	cpfsgt	??_led_turn_on^0,c
   795   0019BE  EFE3  F00C         	goto	u3941
   796   0019C2  EFE5  F00C         	goto	u3940
   797   0019C6                     u3941:
   798   0019C6  EFE7  F00C         	goto	l239
   799   0019CA                     u3940:
   800   0019CA                     l4732:
   801                           
   802                           ;ECU_Layer/LED/ecu_led.c: 36:     }
   803   0019CA  EF17  F00D         	goto	l4742
   804   0019CE                     l239:
   805                           
   806                           ;ECU_Layer/LED/ecu_led.c: 38:         PIN_CONFIG LED_IN = {
   807   0019CE  C054  F06F         	movff	led_turn_on@F3053,led_turn_on@LED_IN
   808   0019D2  C06C  FFD9         	movff	led_turn_on@LED_CONFIG,fsr2l
   809   0019D6  C06D  FFDA         	movff	led_turn_on@LED_CONFIG+1,fsr2h
   810   0019DA  38DF               	swapf	223,w,c
   811   0019DC  32E8               	rrcf	wreg,f,c
   812   0019DE  0B07               	andlw	7
   813   0019E0  6E6E               	movwf	??_led_turn_on^0,c
   814   0019E2  506F               	movf	led_turn_on@LED_IN^0,w,c
   815   0019E4  186E               	xorwf	??_led_turn_on^0,w,c
   816   0019E6  0BF8               	andlw	-8
   817   0019E8  186E               	xorwf	??_led_turn_on^0,w,c
   818   0019EA  6E6F               	movwf	led_turn_on@LED_IN^0,c
   819   0019EC  C06C  FFD9         	movff	led_turn_on@LED_CONFIG,fsr2l
   820   0019F0  C06D  FFDA         	movff	led_turn_on@LED_CONFIG+1,fsr2h
   821   0019F4  50DF               	movf	223,w,c
   822   0019F6  0B0F               	andlw	15
   823   0019F8  6E6E               	movwf	??_led_turn_on^0,c
   824   0019FA  466E               	rlncf	??_led_turn_on^0,f,c
   825   0019FC  466E               	rlncf	??_led_turn_on^0,f,c
   826   0019FE  466E               	rlncf	??_led_turn_on^0,f,c
   827   001A00  506F               	movf	led_turn_on@LED_IN^0,w,c
   828   001A02  186E               	xorwf	??_led_turn_on^0,w,c
   829   001A04  0BC7               	andlw	-57
   830   001A06  186E               	xorwf	??_led_turn_on^0,w,c
   831   001A08  6E6F               	movwf	led_turn_on@LED_IN^0,c
   832   001A0A  9C6F               	bcf	led_turn_on@LED_IN^0,6,c
   833   001A0C  C06C  FFD9         	movff	led_turn_on@LED_CONFIG,fsr2l
   834   001A10  C06D  FFDA         	movff	led_turn_on@LED_CONFIG+1,fsr2h
   835   001A14  A8DF               	btfss	indf2,4,c
   836   001A16  D002               	bra	u3955
   837   001A18  8E6F               	bsf	led_turn_on@LED_IN^0,7,c
   838   001A1A  D001               	bra	u3957
   839   001A1C                     u3955:
   840   001A1C  9E6F               	bcf	led_turn_on@LED_IN^0,7,c
   841   001A1E                     u3957:
   842   001A1E                     
   843                           ;ECU_Layer/LED/ecu_led.c: 44:         gpio_pin_write_logic(&LED_IN,GPIO_HIGH);
   844   001A1E  0E6F               	movlw	low led_turn_on@LED_IN
   845   001A20  6E63               	movwf	gpio_pin_write_logic@str^0,c
   846   001A22  0E00               	movlw	high led_turn_on@LED_IN
   847   001A24  6E64               	movwf	(gpio_pin_write_logic@str+1)^0,c
   848   001A26  0E01               	movlw	1
   849   001A28  6E65               	movwf	gpio_pin_write_logic@LOG^0,c
   850   001A2A  ECEB  F009         	call	_gpio_pin_write_logic	;wreg free
   851   001A2E                     l4742:
   852                           
   853                           ;ECU_Layer/LED/ecu_led.c: 47:     return ret;
   854   001A2E  0E01               	movlw	1
   855   001A30  0012               	return		;funcret
   856   001A32                     __end_of_led_turn_on:
   857                           	callstack 0
   858                           
   859 ;; *************** function _led_turn_off *****************
   860 ;; Defined at:
   861 ;;		line 51 in file "ECU_Layer/LED/ecu_led.c"
   862 ;; Parameters:    Size  Location     Type
   863 ;;  LED_CONFIG      2   21[COMRAM] PTR struct .
   864 ;;		 -> led_2(1), led_1(1), 
   865 ;; Auto vars:     Size  Location     Type
   866 ;;  LED_IN          1   24[COMRAM] struct .
   867 ;;  ret             1    0        unsigned char 
   868 ;; Return value:  Size  Location     Type
   869 ;;                  1    wreg      unsigned char 
   870 ;; Registers used:
   871 ;;		wreg, fsr2l, fsr2h, status,2, status,0, prodl, prodh, cstack
   872 ;; Tracked objects:
   873 ;;		On entry : 0/0
   874 ;;		On exit  : 0/0
   875 ;;		Unchanged: 0/0
   876 ;; Data sizes:     COMRAM   BANK0   BANK1   BANK2   BANK3   BANK4   BANK5   BANK6   BANK7   BANK8   BANK9  BANK10  BANK1
      +1  BANK12  BANK13  BANK14  BANK15
   877 ;;      Params:         2       0       0       0       0       0       0       0       0       0       0       0       
      +0       0       0       0       0
   878 ;;      Locals:         1       0       0       0       0       0       0       0       0       0       0       0       
      +0       0       0       0       0
   879 ;;      Temps:          1       0       0       0       0       0       0       0       0       0       0       0       
      +0       0       0       0       0
   880 ;;      Totals:         4       0       0       0       0       0       0       0       0       0       0       0       
      +0       0       0       0       0
   881 ;;Total ram usage:        4 bytes
   882 ;; Hardware stack levels used: 1
   883 ;; Hardware stack levels required when called: 7
   884 ;; This function calls:
   885 ;;		_gpio_pin_write_logic
   886 ;; This function is called by:
   887 ;;		_main
   888 ;; This function uses a non-reentrant model
   889 ;;
   890                           
   891                           	psect	text2
   892   001A32                     __ptext2:
   893                           	callstack 0
   894   001A32                     _led_turn_off:
   895                           	callstack 23
   896   001A32                     
   897                           ;ECU_Layer/LED/ecu_led.c: 53:     if(LED_CONFIG == ((void*)0) || (LED_CONFIG->PIN_L > 7)
      +                          ){
   898   001A32  506C               	movf	led_turn_off@LED_CONFIG^0,w,c
   899   001A34  106D               	iorwf	(led_turn_off@LED_CONFIG+1)^0,w,c
   900   001A36  B4D8               	btfsc	status,2,c
   901   001A38  EF20  F00D         	goto	u3961
   902   001A3C  EF22  F00D         	goto	u3960
   903   001A40                     u3961:
   904   001A40  EF32  F00D         	goto	l4752
   905   001A44                     u3960:
   906   001A44  C06C  FFD9         	movff	led_turn_off@LED_CONFIG,fsr2l
   907   001A48  C06D  FFDA         	movff	led_turn_off@LED_CONFIG+1,fsr2h
   908   001A4C  38DF               	swapf	223,w,c
   909   001A4E  32E8               	rrcf	wreg,f,c
   910   001A50  0B07               	andlw	7
   911   001A52  6E6E               	movwf	??_led_turn_off^0,c
   912   001A54  0E07               	movlw	7
   913   001A56  646E               	cpfsgt	??_led_turn_off^0,c
   914   001A58  EF30  F00D         	goto	u3971
   915   001A5C  EF32  F00D         	goto	u3970
   916   001A60                     u3971:
   917   001A60  EF34  F00D         	goto	l248
   918   001A64                     u3970:
   919   001A64                     l4752:
   920                           
   921                           ;ECU_Layer/LED/ecu_led.c: 55:     }
   922   001A64  EF64  F00D         	goto	l4762
   923   001A68                     l248:
   924                           
   925                           ;ECU_Layer/LED/ecu_led.c: 58:         PIN_CONFIG LED_IN = {
   926   001A68  C053  F06F         	movff	led_turn_off@F3058,led_turn_off@LED_IN
   927   001A6C  C06C  FFD9         	movff	led_turn_off@LED_CONFIG,fsr2l
   928   001A70  C06D  FFDA         	movff	led_turn_off@LED_CONFIG+1,fsr2h
   929   001A74  38DF               	swapf	223,w,c
   930   001A76  32E8               	rrcf	wreg,f,c
   931   001A78  0B07               	andlw	7
   932   001A7A  6E6E               	movwf	??_led_turn_off^0,c
   933   001A7C  506F               	movf	led_turn_off@LED_IN^0,w,c
   934   001A7E  186E               	xorwf	??_led_turn_off^0,w,c
   935   001A80  0BF8               	andlw	-8
   936   001A82  186E               	xorwf	??_led_turn_off^0,w,c
   937   001A84  6E6F               	movwf	led_turn_off@LED_IN^0,c
   938   001A86  C06C  FFD9         	movff	led_turn_off@LED_CONFIG,fsr2l
   939   001A8A  C06D  FFDA         	movff	led_turn_off@LED_CONFIG+1,fsr2h
   940   001A8E  50DF               	movf	223,w,c
   941   001A90  0B0F               	andlw	15
   942   001A92  6E6E               	movwf	??_led_turn_off^0,c
   943   001A94  466E               	rlncf	??_led_turn_off^0,f,c
   944   001A96  466E               	rlncf	??_led_turn_off^0,f,c
   945   001A98  466E               	rlncf	??_led_turn_off^0,f,c
   946   001A9A  506F               	movf	led_turn_off@LED_IN^0,w,c
   947   001A9C  186E               	xorwf	??_led_turn_off^0,w,c
   948   001A9E  0BC7               	andlw	-57
   949   001AA0  186E               	xorwf	??_led_turn_off^0,w,c
   950   001AA2  6E6F               	movwf	led_turn_off@LED_IN^0,c
   951   001AA4  9C6F               	bcf	led_turn_off@LED_IN^0,6,c
   952   001AA6  C06C  FFD9         	movff	led_turn_off@LED_CONFIG,fsr2l
   953   001AAA  C06D  FFDA         	movff	led_turn_off@LED_CONFIG+1,fsr2h
   954   001AAE  A8DF               	btfss	indf2,4,c
   955   001AB0  D002               	bra	u3985
   956   001AB2  8E6F               	bsf	led_turn_off@LED_IN^0,7,c
   957   001AB4  D001               	bra	u3987
   958   001AB6                     u3985:
   959   001AB6  9E6F               	bcf	led_turn_off@LED_IN^0,7,c
   960   001AB8                     u3987:
   961   001AB8                     
   962                           ;ECU_Layer/LED/ecu_led.c: 64:         gpio_pin_write_logic(&LED_IN,GPIO_LOW);
   963   001AB8  0E6F               	movlw	low led_turn_off@LED_IN
   964   001ABA  6E63               	movwf	gpio_pin_write_logic@str^0,c
   965   001ABC  0E00               	movlw	high led_turn_off@LED_IN
   966   001ABE  6E64               	movwf	(gpio_pin_write_logic@str+1)^0,c
   967   001AC0  0E00               	movlw	0
   968   001AC2  6E65               	movwf	gpio_pin_write_logic@LOG^0,c
   969   001AC4  ECEB  F009         	call	_gpio_pin_write_logic	;wreg free
   970   001AC8                     l4762:
   971                           
   972                           ;ECU_Layer/LED/ecu_led.c: 67:     return ret;
   973   001AC8  0E01               	movlw	1
   974   001ACA  0012               	return		;funcret
   975   001ACC                     __end_of_led_turn_off:
   976                           	callstack 0
   977                           
   978 ;; *************** function _led_intialize *****************
   979 ;; Defined at:
   980 ;;		line 11 in file "ECU_Layer/LED/ecu_led.c"
   981 ;; Parameters:    Size  Location     Type
   982 ;;  LED_CONFIG      2   25[COMRAM] PTR struct .
   983 ;;		 -> led_2(1), led_1(1), 
   984 ;; Auto vars:     Size  Location     Type
   985 ;;  LED_IN          1    1[BANK0 ] struct .
   986 ;;  ret             1    0        unsigned char 
   987 ;; Return value:  Size  Location     Type
   988 ;;                  1    wreg      unsigned char 
   989 ;; Registers used:
   990 ;;		wreg, fsr2l, fsr2h, status,2, status,0, prodl, prodh, cstack
   991 ;; Tracked objects:
   992 ;;		On entry : 0/0
   993 ;;		On exit  : 0/0
   994 ;;		Unchanged: 0/0
   995 ;; Data sizes:     COMRAM   BANK0   BANK1   BANK2   BANK3   BANK4   BANK5   BANK6   BANK7   BANK8   BANK9  BANK10  BANK1
      +1  BANK12  BANK13  BANK14  BANK15
   996 ;;      Params:         2       0       0       0       0       0       0       0       0       0       0       0       
      +0       0       0       0       0
   997 ;;      Locals:         0       1       0       0       0       0       0       0       0       0       0       0       
      +0       0       0       0       0
   998 ;;      Temps:          0       1       0       0       0       0       0       0       0       0       0       0       
      +0       0       0       0       0
   999 ;;      Totals:         2       2       0       0       0       0       0       0       0       0       0       0       
      +0       0       0       0       0
  1000 ;;Total ram usage:        4 bytes
  1001 ;; Hardware stack levels used: 1
  1002 ;; Hardware stack levels required when called: 8
  1003 ;; This function calls:
  1004 ;;		_gpio_pin_intialize
  1005 ;; This function is called by:
  1006 ;;		_main
  1007 ;; This function uses a non-reentrant model
  1008 ;;
  1009                           
  1010                           	psect	text3
  1011   001ACC                     __ptext3:
  1012                           	callstack 0
  1013   001ACC                     _led_intialize:
  1014                           	callstack 22
  1015   001ACC                     
  1016                           ;ECU_Layer/LED/ecu_led.c: 13:     if(LED_CONFIG == ((void*)0) || (LED_CONFIG->PIN_L > 7)
      +                          ){
  1017   001ACC  5070               	movf	led_intialize@LED_CONFIG^0,w,c
  1018   001ACE  1071               	iorwf	(led_intialize@LED_CONFIG+1)^0,w,c
  1019   001AD0  B4D8               	btfsc	status,2,c
  1020   001AD2  EF6D  F00D         	goto	u3901
  1021   001AD6  EF6F  F00D         	goto	u3900
  1022   001ADA                     u3901:
  1023   001ADA  EF80  F00D         	goto	l4712
  1024   001ADE                     u3900:
  1025   001ADE  C070  FFD9         	movff	led_intialize@LED_CONFIG,fsr2l
  1026   001AE2  C071  FFDA         	movff	led_intialize@LED_CONFIG+1,fsr2h
  1027   001AE6  38DF               	swapf	223,w,c
  1028   001AE8  32E8               	rrcf	wreg,f,c
  1029   001AEA  0B07               	andlw	7
  1030   001AEC  0100               	movlb	0	; () banked
  1031   001AEE  6F80               	movwf	??_led_intialize& (0+255),b
  1032   001AF0  0E07               	movlw	7
  1033   001AF2  6580               	cpfsgt	??_led_intialize& (0+255),b
  1034   001AF4  EF7E  F00D         	goto	u3911
  1035   001AF8  EF80  F00D         	goto	u3910
  1036   001AFC                     u3911:
  1037   001AFC  EF82  F00D         	goto	l230
  1038   001B00                     u3910:
  1039   001B00                     l4712:
  1040                           
  1041                           ;ECU_Layer/LED/ecu_led.c: 15:     }
  1042   001B00  EFB1  F00D         	goto	l4722
  1043   001B04                     l230:
  1044                           
  1045                           ; BSR set to: 0
  1046                           ;ECU_Layer/LED/ecu_led.c: 17:         PIN_CONFIG LED_IN = {
  1047   001B04  C055  F081         	movff	led_intialize@F3048,led_intialize@LED_IN
  1048   001B08                     
  1049                           ; BSR set to: 0
  1050   001B08  C070  FFD9         	movff	led_intialize@LED_CONFIG,fsr2l
  1051   001B0C  C071  FFDA         	movff	led_intialize@LED_CONFIG+1,fsr2h
  1052   001B10  38DF               	swapf	223,w,c
  1053   001B12  32E8               	rrcf	wreg,f,c
  1054   001B14  0B07               	andlw	7
  1055   001B16  6F80               	movwf	??_led_intialize& (0+255),b
  1056   001B18  5181               	movf	led_intialize@LED_IN& (0+255),w,b
  1057   001B1A  1980               	xorwf	??_led_intialize& (0+255),w,b
  1058   001B1C  0BF8               	andlw	-8
  1059   001B1E  1980               	xorwf	??_led_intialize& (0+255),w,b
  1060   001B20  6F81               	movwf	led_intialize@LED_IN& (0+255),b
  1061   001B22  C070  FFD9         	movff	led_intialize@LED_CONFIG,fsr2l
  1062   001B26  C071  FFDA         	movff	led_intialize@LED_CONFIG+1,fsr2h
  1063   001B2A  50DF               	movf	223,w,c
  1064   001B2C  0B0F               	andlw	15
  1065   001B2E  6F80               	movwf	??_led_intialize& (0+255),b
  1066   001B30  4780               	rlncf	??_led_intialize& (0+255),f,b
  1067   001B32  4780               	rlncf	??_led_intialize& (0+255),f,b
  1068   001B34  4780               	rlncf	??_led_intialize& (0+255),f,b
  1069   001B36  5181               	movf	led_intialize@LED_IN& (0+255),w,b
  1070   001B38  1980               	xorwf	??_led_intialize& (0+255),w,b
  1071   001B3A  0BC7               	andlw	-57
  1072   001B3C  1980               	xorwf	??_led_intialize& (0+255),w,b
  1073   001B3E  6F81               	movwf	led_intialize@LED_IN& (0+255),b
  1074   001B40                     
  1075                           ; BSR set to: 0
  1076   001B40  9D81               	bcf	led_intialize@LED_IN& (0+255),6,b
  1077   001B42                     
  1078                           ; BSR set to: 0
  1079   001B42  C070  FFD9         	movff	led_intialize@LED_CONFIG,fsr2l
  1080   001B46  C071  FFDA         	movff	led_intialize@LED_CONFIG+1,fsr2h
  1081   001B4A  A8DF               	btfss	indf2,4,c
  1082   001B4C  D002               	bra	u3925
  1083   001B4E  8F81               	bsf	led_intialize@LED_IN& (0+255),7,b
  1084   001B50  D002               	bra	u3927
  1085   001B52                     u3925:
  1086   001B52  0100               	movlb	0	; () banked
  1087   001B54  9F81               	bcf	led_intialize@LED_IN& (0+255),7,b
  1088   001B56                     u3927:
  1089   001B56                     
  1090                           ; BSR set to: 0
  1091                           ;ECU_Layer/LED/ecu_led.c: 24:         gpio_pin_intialize(&LED_IN);
  1092   001B56  0E81               	movlw	low led_intialize@LED_IN
  1093   001B58  6E6C               	movwf	gpio_pin_intialize@str^0,c
  1094   001B5A  0E00               	movlw	high led_intialize@LED_IN
  1095   001B5C  6E6D               	movwf	(gpio_pin_intialize@str+1)^0,c
  1096   001B5E  EC5A  F00E         	call	_gpio_pin_intialize	;wreg free
  1097   001B62                     l4722:
  1098                           
  1099                           ;ECU_Layer/LED/ecu_led.c: 28:     return ret;
  1100   001B62  0E01               	movlw	1
  1101   001B64  0012               	return		;funcret
  1102   001B66                     __end_of_led_intialize:
  1103                           	callstack 0
  1104                           
  1105 ;; *************** function _gpio_pin_intialize *****************
  1106 ;; Defined at:
  1107 ;;		line 108 in file "MCAL_Layer/GPIO/hal_gpio.c"
  1108 ;; Parameters:    Size  Location     Type
  1109 ;;  str             2   21[COMRAM] PTR const struct .
  1110 ;;		 -> relay_initialize@rel_pin(1), led_intialize@LED_IN(1), 
  1111 ;; Auto vars:     Size  Location     Type
  1112 ;;  ret             1   24[COMRAM] unsigned char 
  1113 ;; Return value:  Size  Location     Type
  1114 ;;                  1    wreg      unsigned char 
  1115 ;; Registers used:
  1116 ;;		wreg, fsr2l, fsr2h, status,2, status,0, prodl, prodh, cstack
  1117 ;; Tracked objects:
  1118 ;;		On entry : 0/0
  1119 ;;		On exit  : 0/0
  1120 ;;		Unchanged: 0/0
  1121 ;; Data sizes:     COMRAM   BANK0   BANK1   BANK2   BANK3   BANK4   BANK5   BANK6   BANK7   BANK8   BANK9  BANK10  BANK1
      +1  BANK12  BANK13  BANK14  BANK15
  1122 ;;      Params:         2       0       0       0       0       0       0       0       0       0       0       0       
      +0       0       0       0       0
  1123 ;;      Locals:         1       0       0       0       0       0       0       0       0       0       0       0       
      +0       0       0       0       0
  1124 ;;      Temps:          1       0       0       0       0       0       0       0       0       0       0       0       
      +0       0       0       0       0
  1125 ;;      Totals:         4       0       0       0       0       0       0       0       0       0       0       0       
      +0       0       0       0       0
  1126 ;;Total ram usage:        4 bytes
  1127 ;; Hardware stack levels used: 1
  1128 ;; Hardware stack levels required when called: 7
  1129 ;; This function calls:
  1130 ;;		_gpio_pin_direction_intialize
  1131 ;;		_gpio_pin_write_logic
  1132 ;; This function is called by:
  1133 ;;		_led_intialize
  1134 ;;		_keypad_initialize
  1135 ;;		_lcd_4bits_initialze
  1136 ;;		_lcd_8bits_initialze
  1137 ;;		_relay_initialize
  1138 ;;		_seg_7_pins_intialize
  1139 ;; This function uses a non-reentrant model
  1140 ;;
  1141                           
  1142                           	psect	text4
  1143   001CB4                     __ptext4:
  1144                           	callstack 0
  1145   001CB4                     _gpio_pin_intialize:
  1146                           	callstack 22
  1147   001CB4                     
  1148                           ;MCAL_Layer/GPIO/hal_gpio.c: 112:     if(str == ((void*)0) || (str->PIN > 7)){
  1149   001CB4  506C               	movf	gpio_pin_intialize@str^0,w,c
  1150   001CB6  106D               	iorwf	(gpio_pin_intialize@str+1)^0,w,c
  1151   001CB8  B4D8               	btfsc	status,2,c
  1152   001CBA  EF61  F00E         	goto	u3731
  1153   001CBE  EF63  F00E         	goto	u3730
  1154   001CC2                     u3731:
  1155   001CC2  EF72  F00E         	goto	l4554
  1156   001CC6                     u3730:
  1157   001CC6  C06C  FFD9         	movff	gpio_pin_intialize@str,fsr2l
  1158   001CCA  C06D  FFDA         	movff	gpio_pin_intialize@str+1,fsr2h
  1159   001CCE  50DF               	movf	223,w,c
  1160   001CD0  0B07               	andlw	7
  1161   001CD2  6E6E               	movwf	??_gpio_pin_intialize^0,c
  1162   001CD4  0E07               	movlw	7
  1163   001CD6  646E               	cpfsgt	??_gpio_pin_intialize^0,c
  1164   001CD8  EF70  F00E         	goto	u3741
  1165   001CDC  EF72  F00E         	goto	u3740
  1166   001CE0                     u3741:
  1167   001CE0  EF76  F00E         	goto	l4556
  1168   001CE4                     u3740:
  1169   001CE4                     l4554:
  1170                           
  1171                           ;MCAL_Layer/GPIO/hal_gpio.c: 113:         ret = (Std_ReturnType)0x01;
  1172   001CE4  0E01               	movlw	1
  1173   001CE6  6E6F               	movwf	gpio_pin_intialize@ret^0,c
  1174                           
  1175                           ;MCAL_Layer/GPIO/hal_gpio.c: 114:     }
  1176   001CE8  EF8C  F00E         	goto	l4558
  1177   001CEC                     l4556:
  1178                           
  1179                           ;MCAL_Layer/GPIO/hal_gpio.c: 116:        ret = gpio_pin_direction_intialize(str);
  1180   001CEC  C06C  F063         	movff	gpio_pin_intialize@str,gpio_pin_direction_intialize@str
  1181   001CF0  C06D  F064         	movff	gpio_pin_intialize@str+1,gpio_pin_direction_intialize@str+1
  1182   001CF4  EC7B  F00A         	call	_gpio_pin_direction_intialize	;wreg free
  1183   001CF8  6E6F               	movwf	gpio_pin_intialize@ret^0,c
  1184                           
  1185                           ;MCAL_Layer/GPIO/hal_gpio.c: 117:        ret = gpio_pin_write_logic(str , str->Logic);
  1186   001CFA  C06C  F063         	movff	gpio_pin_intialize@str,gpio_pin_write_logic@str
  1187   001CFE  C06D  F064         	movff	gpio_pin_intialize@str+1,gpio_pin_write_logic@str+1
  1188   001D02  C06C  FFD9         	movff	gpio_pin_intialize@str,fsr2l
  1189   001D06  C06D  FFDA         	movff	gpio_pin_intialize@str+1,fsr2h
  1190   001D0A  0E00               	movlw	0
  1191   001D0C  BEDF               	btfsc	indf2,7,c
  1192   001D0E  0E01               	movlw	1
  1193   001D10  6E65               	movwf	gpio_pin_write_logic@LOG^0,c
  1194   001D12  ECEB  F009         	call	_gpio_pin_write_logic	;wreg free
  1195   001D16  6E6F               	movwf	gpio_pin_intialize@ret^0,c
  1196   001D18                     l4558:
  1197                           
  1198                           ;MCAL_Layer/GPIO/hal_gpio.c: 120:     return ret;
  1199   001D18  506F               	movf	gpio_pin_intialize@ret^0,w,c
  1200   001D1A  0012               	return		;funcret
  1201   001D1C                     __end_of_gpio_pin_intialize:
  1202                           	callstack 0
  1203                           
  1204 ;; *************** function _gpio_pin_write_logic *****************
  1205 ;; Defined at:
  1206 ;;		line 58 in file "MCAL_Layer/GPIO/hal_gpio.c"
  1207 ;; Parameters:    Size  Location     Type
  1208 ;;  str             2   12[COMRAM] PTR const struct .
  1209 ;;		 -> relay_off@rel_pin(1), relay_on@rel_pin(1), relay_initialize@rel_pin(1), led_turn_off@LED_IN(1), 
  1210 ;;		 -> led_turn_on@LED_IN(1), led_intialize@LED_IN(1), 
  1211 ;;  LOG             1   14[COMRAM] enum E2989
  1212 ;; Auto vars:     Size  Location     Type
  1213 ;;  ret             1    0        unsigned char 
  1214 ;; Return value:  Size  Location     Type
  1215 ;;                  1    wreg      unsigned char 
  1216 ;; Registers used:
  1217 ;;		wreg, fsr2l, fsr2h, status,2, status,0, prodl, prodh
  1218 ;; Tracked objects:
  1219 ;;		On entry : 0/0
  1220 ;;		On exit  : 0/0
  1221 ;;		Unchanged: 0/0
  1222 ;; Data sizes:     COMRAM   BANK0   BANK1   BANK2   BANK3   BANK4   BANK5   BANK6   BANK7   BANK8   BANK9  BANK10  BANK1
      +1  BANK12  BANK13  BANK14  BANK15
  1223 ;;      Params:         3       0       0       0       0       0       0       0       0       0       0       0       
      +0       0       0       0       0
  1224 ;;      Locals:         0       0       0       0       0       0       0       0       0       0       0       0       
      +0       0       0       0       0
  1225 ;;      Temps:          6       0       0       0       0       0       0       0       0       0       0       0       
      +0       0       0       0       0
  1226 ;;      Totals:         9       0       0       0       0       0       0       0       0       0       0       0       
      +0       0       0       0       0
  1227 ;;Total ram usage:        9 bytes
  1228 ;; Hardware stack levels used: 1
  1229 ;; Hardware stack levels required when called: 6
  1230 ;; This function calls:
  1231 ;;		Nothing
  1232 ;; This function is called by:
  1233 ;;		_led_turn_on
  1234 ;;		_led_turn_off
  1235 ;;		_gpio_pin_intialize
  1236 ;;		_keypad_read_value
  1237 ;;		_turnoff_all_rows
  1238 ;;		_lcd_4bits_send_command
  1239 ;;		_lcd_4bits_send_char
  1240 ;;		_enable_pin_4bits
  1241 ;;		_send_4bits
  1242 ;;		_lcd_8bits_send_command
  1243 ;;		_lcd_8bits_send_char
  1244 ;;		_enable_pin_8bits
  1245 ;;		_dc_motor_move_forward
  1246 ;;		_dc_motor_move_backward
  1247 ;;		_dc_motor_stop
  1248 ;;		_relay_on
  1249 ;;		_relay_off
  1250 ;;		_seg_7_pins_write
  1251 ;; This function uses a non-reentrant model
  1252 ;;
  1253                           
  1254                           	psect	text5
  1255   0013D6                     __ptext5:
  1256                           	callstack 0
  1257   0013D6                     _gpio_pin_write_logic:
  1258                           	callstack 23
  1259   0013D6                     
  1260                           ;MCAL_Layer/GPIO/hal_gpio.c: 61:     if(str == ((void*)0) || (str->PIN > 7)){
  1261   0013D6  5063               	movf	gpio_pin_write_logic@str^0,w,c
  1262   0013D8  1064               	iorwf	(gpio_pin_write_logic@str+1)^0,w,c
  1263   0013DA  B4D8               	btfsc	status,2,c
  1264   0013DC  EFF2  F009         	goto	u3691
  1265   0013E0  EFF4  F009         	goto	u3690
  1266   0013E4                     u3691:
  1267   0013E4  EF03  F00A         	goto	l4530
  1268   0013E8                     u3690:
  1269   0013E8  C063  FFD9         	movff	gpio_pin_write_logic@str,fsr2l
  1270   0013EC  C064  FFDA         	movff	gpio_pin_write_logic@str+1,fsr2h
  1271   0013F0  50DF               	movf	223,w,c
  1272   0013F2  0B07               	andlw	7
  1273   0013F4  6E66               	movwf	??_gpio_pin_write_logic^0,c
  1274   0013F6  0E07               	movlw	7
  1275   0013F8  6466               	cpfsgt	??_gpio_pin_write_logic^0,c
  1276   0013FA  EF01  F00A         	goto	u3701
  1277   0013FE  EF03  F00A         	goto	u3700
  1278   001402                     u3701:
  1279   001402  EF64  F00A         	goto	l4538
  1280   001406                     u3700:
  1281   001406                     l4530:
  1282                           
  1283                           ;MCAL_Layer/GPIO/hal_gpio.c: 63:     }
  1284   001406  EF79  F00A         	goto	l4540
  1285   00140A                     l4532:
  1286                           
  1287                           ;MCAL_Layer/GPIO/hal_gpio.c: 68:                 (*LAT_REG[str->PORT] |= (0x01 << str->P
      +                          IN));
  1288   00140A  C063  FFD9         	movff	gpio_pin_write_logic@str,fsr2l
  1289   00140E  C064  FFDA         	movff	gpio_pin_write_logic@str+1,fsr2h
  1290   001412  50DF               	movf	223,w,c
  1291   001414  0B07               	andlw	7
  1292   001416  6E66               	movwf	??_gpio_pin_write_logic^0,c
  1293   001418  0E01               	movlw	1
  1294   00141A  6E67               	movwf	(??_gpio_pin_write_logic+1)^0,c
  1295   00141C  2A66               	incf	??_gpio_pin_write_logic^0,f,c
  1296   00141E  EF13  F00A         	goto	u3714
  1297   001422                     u3715:
  1298   001422  90D8               	bcf	status,0,c
  1299   001424  3667               	rlcf	(??_gpio_pin_write_logic+1)^0,f,c
  1300   001426                     u3714:
  1301   001426  2E66               	decfsz	??_gpio_pin_write_logic^0,f,c
  1302   001428  EF11  F00A         	goto	u3715
  1303   00142C  C063  FFD9         	movff	gpio_pin_write_logic@str,fsr2l
  1304   001430  C064  FFDA         	movff	gpio_pin_write_logic@str+1,fsr2h
  1305   001434  30DF               	rrcf	223,w,c
  1306   001436  32E8               	rrcf	wreg,f,c
  1307   001438  32E8               	rrcf	wreg,f,c
  1308   00143A  0B07               	andlw	7
  1309   00143C  6E68               	movwf	(??_gpio_pin_write_logic+2)^0,c
  1310   00143E  5068               	movf	(??_gpio_pin_write_logic+2)^0,w,c
  1311   001440  0D02               	mullw	2
  1312   001442  0E15               	movlw	low _LAT_REG
  1313   001444  24F3               	addwf	243,w,c
  1314   001446  6ED9               	movwf	fsr2l,c
  1315   001448  0E00               	movlw	high _LAT_REG
  1316   00144A  20F4               	addwfc	prodh,w,c
  1317   00144C  6EDA               	movwf	fsr2h,c
  1318   00144E  CFDE F069          	movff	postinc2,??_gpio_pin_write_logic+3
  1319   001452  CFDD F06A          	movff	postdec2,??_gpio_pin_write_logic+4
  1320   001456  C069  FFD9         	movff	??_gpio_pin_write_logic+3,fsr2l
  1321   00145A  C06A  FFDA         	movff	??_gpio_pin_write_logic+4,fsr2h
  1322   00145E  5067               	movf	(??_gpio_pin_write_logic+1)^0,w,c
  1323   001460  12DF               	iorwf	indf2,f,c
  1324                           
  1325                           ;MCAL_Layer/GPIO/hal_gpio.c: 69:                 break;
  1326   001462  EF79  F00A         	goto	l4540
  1327   001466                     l4534:
  1328                           
  1329                           ;MCAL_Layer/GPIO/hal_gpio.c: 71:                 (*LAT_REG[str->PORT] &= ~(0x01 << str->
      +                          PIN));
  1330   001466  C063  FFD9         	movff	gpio_pin_write_logic@str,fsr2l
  1331   00146A  C064  FFDA         	movff	gpio_pin_write_logic@str+1,fsr2h
  1332   00146E  50DF               	movf	223,w,c
  1333   001470  0B07               	andlw	7
  1334   001472  6E66               	movwf	??_gpio_pin_write_logic^0,c
  1335   001474  0E01               	movlw	1
  1336   001476  6E67               	movwf	(??_gpio_pin_write_logic+1)^0,c
  1337   001478  2A66               	incf	??_gpio_pin_write_logic^0,f,c
  1338   00147A  EF41  F00A         	goto	u3724
  1339   00147E                     u3725:
  1340   00147E  90D8               	bcf	status,0,c
  1341   001480  3667               	rlcf	(??_gpio_pin_write_logic+1)^0,f,c
  1342   001482                     u3724:
  1343   001482  2E66               	decfsz	??_gpio_pin_write_logic^0,f,c
  1344   001484  EF3F  F00A         	goto	u3725
  1345   001488  5067               	movf	(??_gpio_pin_write_logic+1)^0,w,c
  1346   00148A  0AFF               	xorlw	255
  1347   00148C  6E68               	movwf	(??_gpio_pin_write_logic+2)^0,c
  1348   00148E  C063  FFD9         	movff	gpio_pin_write_logic@str,fsr2l
  1349   001492  C064  FFDA         	movff	gpio_pin_write_logic@str+1,fsr2h
  1350   001496  30DF               	rrcf	223,w,c
  1351   001498  32E8               	rrcf	wreg,f,c
  1352   00149A  32E8               	rrcf	wreg,f,c
  1353   00149C  0B07               	andlw	7
  1354   00149E  6E69               	movwf	(??_gpio_pin_write_logic+3)^0,c
  1355   0014A0  5069               	movf	(??_gpio_pin_write_logic+3)^0,w,c
  1356   0014A2  0D02               	mullw	2
  1357   0014A4  0E15               	movlw	low _LAT_REG
  1358   0014A6  24F3               	addwf	243,w,c
  1359   0014A8  6ED9               	movwf	fsr2l,c
  1360   0014AA  0E00               	movlw	high _LAT_REG
  1361   0014AC  20F4               	addwfc	prodh,w,c
  1362   0014AE  6EDA               	movwf	fsr2h,c
  1363   0014B0  CFDE F06A          	movff	postinc2,??_gpio_pin_write_logic+4
  1364   0014B4  CFDD F06B          	movff	postdec2,??_gpio_pin_write_logic+5
  1365   0014B8  C06A  FFD9         	movff	??_gpio_pin_write_logic+4,fsr2l
  1366   0014BC  C06B  FFDA         	movff	??_gpio_pin_write_logic+5,fsr2h
  1367   0014C0  5068               	movf	(??_gpio_pin_write_logic+2)^0,w,c
  1368   0014C2  16DF               	andwf	indf2,f,c
  1369                           
  1370                           ;MCAL_Layer/GPIO/hal_gpio.c: 72:                 break;
  1371   0014C4  EF79  F00A         	goto	l4540
  1372   0014C8                     l4538:
  1373   0014C8  5065               	movf	gpio_pin_write_logic@LOG^0,w,c
  1374   0014CA  6E66               	movwf	??_gpio_pin_write_logic^0,c
  1375   0014CC  6A67               	clrf	(??_gpio_pin_write_logic+1)^0,c
  1376                           
  1377                           ; Switch on 2 bytes has been partitioned into a top level switch of size 1, and 1 sub-sw
      +                          itches
  1378                           ; Switch size 1, requested type "simple"
  1379                           ; Number of cases is 1, Range of values is 0 to 0
  1380                           ; switch strategies available:
  1381                           ; Name         Instructions Cycles
  1382                           ; simple_byte            4     3 (average)
  1383                           ;	Chosen strategy is simple_byte
  1384   0014CE  5067               	movf	(??_gpio_pin_write_logic+1)^0,w,c
  1385   0014D0  0A00               	xorlw	0	; case 0
  1386   0014D2  B4D8               	btfsc	status,2,c
  1387   0014D4  EF6E  F00A         	goto	l5532
  1388   0014D8  EF03  F00A         	goto	l4530
  1389   0014DC                     l5532:
  1390                           
  1391                           ; Switch size 1, requested type "simple"
  1392                           ; Number of cases is 2, Range of values is 0 to 1
  1393                           ; switch strategies available:
  1394                           ; Name         Instructions Cycles
  1395                           ; simple_byte            7     4 (average)
  1396                           ;	Chosen strategy is simple_byte
  1397   0014DC  5066               	movf	??_gpio_pin_write_logic^0,w,c
  1398   0014DE  0A00               	xorlw	0	; case 0
  1399   0014E0  B4D8               	btfsc	status,2,c
  1400   0014E2  EF33  F00A         	goto	l4534
  1401   0014E6  0A01               	xorlw	1	; case 1
  1402   0014E8  B4D8               	btfsc	status,2,c
  1403   0014EA  EF05  F00A         	goto	l4532
  1404   0014EE  EF03  F00A         	goto	l4530
  1405   0014F2                     l4540:
  1406                           
  1407                           ;MCAL_Layer/GPIO/hal_gpio.c: 78:     return ret;
  1408   0014F2  0E01               	movlw	1
  1409   0014F4  0012               	return		;funcret
  1410   0014F6                     __end_of_gpio_pin_write_logic:
  1411                           	callstack 0
  1412                           
  1413 ;; *************** function _EXT_INTX_Intialize *****************
  1414 ;; Defined at:
  1415 ;;		line 70 in file "MCAL_Layer/Interupt/mcal_external_interrupt.c"
  1416 ;; Parameters:    Size  Location     Type
  1417 ;;  INT_X           2   23[COMRAM] PTR struct .
  1418 ;;		 -> INT_0(6), 
  1419 ;; Auto vars:     Size  Location     Type
  1420 ;;  ret             1   25[COMRAM] unsigned char 
  1421 ;; Return value:  Size  Location     Type
  1422 ;;                  1    wreg      unsigned char 
  1423 ;; Registers used:
  1424 ;;		wreg, fsr2l, fsr2h, status,2, status,0, prodl, prodh, cstack
  1425 ;; Tracked objects:
  1426 ;;		On entry : 0/0
  1427 ;;		On exit  : 0/0
  1428 ;;		Unchanged: 0/0
  1429 ;; Data sizes:     COMRAM   BANK0   BANK1   BANK2   BANK3   BANK4   BANK5   BANK6   BANK7   BANK8   BANK9  BANK10  BANK1
      +1  BANK12  BANK13  BANK14  BANK15
  1430 ;;      Params:         2       0       0       0       0       0       0       0       0       0       0       0       
      +0       0       0       0       0
  1431 ;;      Locals:         1       0       0       0       0       0       0       0       0       0       0       0       
      +0       0       0       0       0
  1432 ;;      Temps:          0       0       0       0       0       0       0       0       0       0       0       0       
      +0       0       0       0       0
  1433 ;;      Totals:         3       0       0       0       0       0       0       0       0       0       0       0       
      +0       0       0       0       0
  1434 ;;Total ram usage:        3 bytes
  1435 ;; Hardware stack levels used: 1
  1436 ;; Hardware stack levels required when called: 8
  1437 ;; This function calls:
  1438 ;;		_EXT_INTX_Clear_Flag
  1439 ;;		_EXT_INTX_Disable_Helper
  1440 ;;		_EXT_INTX_Edge_Set
  1441 ;;		_EXT_INTX_Enable
  1442 ;;		_EXT_INTX_Function_Initialize
  1443 ;;		_EXT_INTX_Pin_Initialize
  1444 ;;		_EXT_INTX_Prioity_Set
  1445 ;; This function is called by:
  1446 ;;		_main
  1447 ;; This function uses a non-reentrant model
  1448 ;;
  1449                           
  1450                           	psect	text6
  1451   001B66                     __ptext6:
  1452                           	callstack 0
  1453   001B66                     _EXT_INTX_Intialize:
  1454                           	callstack 22
  1455   001B66                     
  1456                           ;MCAL_Layer/Interupt/mcal_external_interrupt.c: 74:     if(INT_X == ((void*)0)){
  1457   001B66  506E               	movf	EXT_INTX_Intialize@INT_X^0,w,c
  1458   001B68  106F               	iorwf	(EXT_INTX_Intialize@INT_X+1)^0,w,c
  1459   001B6A  A4D8               	btfss	status,2,c
  1460   001B6C  EFBA  F00D         	goto	u3991
  1461   001B70  EFBC  F00D         	goto	u3990
  1462   001B74                     u3991:
  1463   001B74  EFC0  F00D         	goto	l4772
  1464   001B78                     u3990:
  1465   001B78                     
  1466                           ;MCAL_Layer/Interupt/mcal_external_interrupt.c: 75:         ret = (Std_ReturnType)0x01;
  1467   001B78  0E01               	movlw	1
  1468   001B7A  6E70               	movwf	EXT_INTX_Intialize@ret^0,c
  1469                           
  1470                           ;MCAL_Layer/Interupt/mcal_external_interrupt.c: 76:     }
  1471   001B7C  EFEE  F00D         	goto	l4782
  1472   001B80                     l4772:
  1473                           
  1474                           ;MCAL_Layer/Interupt/mcal_external_interrupt.c: 79:         ret = EXT_INTX_Disable_Helpe
      +                          r(INT_X);
  1475   001B80  C06E  F063         	movff	EXT_INTX_Intialize@INT_X,EXT_INTX_Disable_Helper@INT_X
  1476   001B84  C06F  F064         	movff	EXT_INTX_Intialize@INT_X+1,EXT_INTX_Disable_Helper@INT_X+1
  1477   001B88  ECF0  F00D         	call	_EXT_INTX_Disable_Helper	;wreg free
  1478   001B8C  6E70               	movwf	EXT_INTX_Intialize@ret^0,c
  1479                           
  1480                           ;MCAL_Layer/Interupt/mcal_external_interrupt.c: 81:         ret = EXT_INTX_Clear_Flag(IN
      +                          T_X);
  1481   001B8E  C06E  F063         	movff	EXT_INTX_Intialize@INT_X,EXT_INTX_Clear_Flag@INT_X
  1482   001B92  C06F  F064         	movff	EXT_INTX_Intialize@INT_X+1,EXT_INTX_Clear_Flag@INT_X+1
  1483   001B96  EC25  F00E         	call	_EXT_INTX_Clear_Flag	;wreg free
  1484   001B9A  6E70               	movwf	EXT_INTX_Intialize@ret^0,c
  1485                           
  1486                           ;MCAL_Layer/Interupt/mcal_external_interrupt.c: 83:         ret = EXT_INTX_Edge_Set(INT_
      +                          X);
  1487   001B9C  C06E  F063         	movff	EXT_INTX_Intialize@INT_X,EXT_INTX_Edge_Set@INT_X
  1488   001BA0  C06F  F064         	movff	EXT_INTX_Intialize@INT_X+1,EXT_INTX_Edge_Set@INT_X+1
  1489   001BA4  EC57  F009         	call	_EXT_INTX_Edge_Set	;wreg free
  1490   001BA8  6E70               	movwf	EXT_INTX_Intialize@ret^0,c
  1491   001BAA  C06E  F06B         	movff	EXT_INTX_Intialize@INT_X,EXT_INTX_Pin_Initialize@INT_X
  1492   001BAE  C06F  F06C         	movff	EXT_INTX_Intialize@INT_X+1,EXT_INTX_Pin_Initialize@INT_X+1
  1493   001BB2  EC9E  F00F         	call	_EXT_INTX_Pin_Initialize	;wreg free
  1494   001BB6  C06E  F063         	movff	EXT_INTX_Intialize@INT_X,EXT_INTX_Prioity_Set@INT_X
  1495   001BBA  C06F  F064         	movff	EXT_INTX_Intialize@INT_X+1,EXT_INTX_Prioity_Set@INT_X+1
  1496   001BBE  EC09  F00C         	call	_EXT_INTX_Prioity_Set	;wreg free
  1497   001BC2  C06E  F065         	movff	EXT_INTX_Intialize@INT_X,EXT_INTX_Function_Initialize@INT_X
  1498   001BC6  C06F  F066         	movff	EXT_INTX_Intialize@INT_X+1,EXT_INTX_Function_Initialize@INT_X+1
  1499   001BCA  EC75  F00C         	call	_EXT_INTX_Function_Initialize	;wreg free
  1500   001BCE                     
  1501                           ;MCAL_Layer/Interupt/mcal_external_interrupt.c: 93:         ret = EXT_INTX_Enable(INT_X)
      +                          ;
  1502   001BCE  C06E  F063         	movff	EXT_INTX_Intialize@INT_X,EXT_INTX_Enable@INT_X
  1503   001BD2  C06F  F064         	movff	EXT_INTX_Intialize@INT_X+1,EXT_INTX_Enable@INT_X+1
  1504   001BD6  EC8E  F00B         	call	_EXT_INTX_Enable	;wreg free
  1505   001BDA  6E70               	movwf	EXT_INTX_Intialize@ret^0,c
  1506   001BDC                     l4782:
  1507                           
  1508                           ;MCAL_Layer/Interupt/mcal_external_interrupt.c: 96:     return ret;
  1509   001BDC  5070               	movf	EXT_INTX_Intialize@ret^0,w,c
  1510   001BDE  0012               	return		;funcret
  1511   001BE0                     __end_of_EXT_INTX_Intialize:
  1512                           	callstack 0
  1513                           
  1514 ;; *************** function _EXT_INTX_Prioity_Set *****************
  1515 ;; Defined at:
  1516 ;;		line 318 in file "MCAL_Layer/Interupt/mcal_external_interrupt.c"
  1517 ;; Parameters:    Size  Location     Type
  1518 ;;  INT_X           2   12[COMRAM] PTR struct .
  1519 ;;		 -> INT_0(6), 
  1520 ;; Auto vars:     Size  Location     Type
  1521 ;;  ret             1    0        unsigned char 
  1522 ;; Return value:  Size  Location     Type
  1523 ;;                  1    wreg      unsigned char 
  1524 ;; Registers used:
  1525 ;;		wreg, fsr2l, fsr2h, status,2, status,0
  1526 ;; Tracked objects:
  1527 ;;		On entry : 0/0
  1528 ;;		On exit  : 0/0
  1529 ;;		Unchanged: 0/0
  1530 ;; Data sizes:     COMRAM   BANK0   BANK1   BANK2   BANK3   BANK4   BANK5   BANK6   BANK7   BANK8   BANK9  BANK10  BANK1
      +1  BANK12  BANK13  BANK14  BANK15
  1531 ;;      Params:         2       0       0       0       0       0       0       0       0       0       0       0       
      +0       0       0       0       0
  1532 ;;      Locals:         0       0       0       0       0       0       0       0       0       0       0       0       
      +0       0       0       0       0
  1533 ;;      Temps:          2       0       0       0       0       0       0       0       0       0       0       0       
      +0       0       0       0       0
  1534 ;;      Totals:         4       0       0       0       0       0       0       0       0       0       0       0       
      +0       0       0       0       0
  1535 ;;Total ram usage:        4 bytes
  1536 ;; Hardware stack levels used: 1
  1537 ;; Hardware stack levels required when called: 6
  1538 ;; This function calls:
  1539 ;;		Nothing
  1540 ;; This function is called by:
  1541 ;;		_EXT_INTX_Intialize
  1542 ;; This function uses a non-reentrant model
  1543 ;;
  1544                           
  1545                           	psect	text7
  1546   001812                     __ptext7:
  1547                           	callstack 0
  1548   001812                     _EXT_INTX_Prioity_Set:
  1549                           	callstack 23
  1550   001812                     
  1551                           ;MCAL_Layer/Interupt/mcal_external_interrupt.c: 322:     if(INT_X == ((void*)0)){
  1552   001812  5063               	movf	EXT_INTX_Prioity_Set@INT_X^0,w,c
  1553   001814  1064               	iorwf	(EXT_INTX_Prioity_Set@INT_X+1)^0,w,c
  1554   001816  A4D8               	btfss	status,2,c
  1555   001818  EF10  F00C         	goto	u2391
  1556   00181C  EF12  F00C         	goto	u2390
  1557   001820                     u2391:
  1558   001820  EF58  F00C         	goto	l3530
  1559   001824                     u2390:
  1560   001824                     
  1561                           ;MCAL_Layer/Interupt/mcal_external_interrupt.c: 324:     }
  1562   001824  EF73  F00C         	goto	l3532
  1563   001828                     l3514:
  1564                           
  1565                           ;MCAL_Layer/Interupt/mcal_external_interrupt.c: 328:                 if(Low_Priority == 
      +                          INT_X->INTX_PRIORITY){
  1566   001828  EE20 F005          	lfsr	2,5
  1567   00182C  5063               	movf	EXT_INTX_Prioity_Set@INT_X^0,w,c
  1568   00182E  26D9               	addwf	fsr2l,f,c
  1569   001830  5064               	movf	(EXT_INTX_Prioity_Set@INT_X+1)^0,w,c
  1570   001832  22DA               	addwfc	fsr2h,f,c
  1571   001834  50DF               	movf	indf2,w,c
  1572   001836  A4D8               	btfss	status,2,c
  1573   001838  EF20  F00C         	goto	u2401
  1574   00183C  EF22  F00C         	goto	u2400
  1575   001840                     u2401:
  1576   001840  EF25  F00C         	goto	l3518
  1577   001844                     u2400:
  1578   001844                     
  1579                           ;MCAL_Layer/Interupt/mcal_external_interrupt.c: 329:                     (INTCON3bits.IN
      +                          T1IP = 0);
  1580   001844  9CF0               	bcf	240,6,c	;volatile
  1581                           
  1582                           ;MCAL_Layer/Interupt/mcal_external_interrupt.c: 330:                 }
  1583   001846  EF73  F00C         	goto	l3532
  1584   00184A                     l3518:
  1585   00184A  EE20 F005          	lfsr	2,5
  1586   00184E  5063               	movf	EXT_INTX_Prioity_Set@INT_X^0,w,c
  1587   001850  26D9               	addwf	fsr2l,f,c
  1588   001852  5064               	movf	(EXT_INTX_Prioity_Set@INT_X+1)^0,w,c
  1589   001854  22DA               	addwfc	fsr2h,f,c
  1590   001856  04DE               	decf	postinc2,w,c
  1591   001858  A4D8               	btfss	status,2,c
  1592   00185A  EF31  F00C         	goto	u2411
  1593   00185E  EF33  F00C         	goto	u2410
  1594   001862                     u2411:
  1595   001862  EF73  F00C         	goto	l624
  1596   001866                     u2410:
  1597   001866                     
  1598                           ;MCAL_Layer/Interupt/mcal_external_interrupt.c: 332:                     (INTCON3bits.IN
      +                          T1IP = 1);
  1599   001866  8CF0               	bsf	240,6,c	;volatile
  1600                           
  1601                           ;MCAL_Layer/Interupt/mcal_external_interrupt.c: 333:                 }
  1602   001868  EF73  F00C         	goto	l3532
  1603   00186C                     l3522:
  1604                           
  1605                           ;MCAL_Layer/Interupt/mcal_external_interrupt.c: 339:                 if(Low_Priority == 
      +                          INT_X->INTX_PRIORITY){
  1606   00186C  EE20 F005          	lfsr	2,5
  1607   001870  5063               	movf	EXT_INTX_Prioity_Set@INT_X^0,w,c
  1608   001872  26D9               	addwf	fsr2l,f,c
  1609   001874  5064               	movf	(EXT_INTX_Prioity_Set@INT_X+1)^0,w,c
  1610   001876  22DA               	addwfc	fsr2h,f,c
  1611   001878  50DF               	movf	indf2,w,c
  1612   00187A  A4D8               	btfss	status,2,c
  1613   00187C  EF42  F00C         	goto	u2421
  1614   001880  EF44  F00C         	goto	u2420
  1615   001884                     u2421:
  1616   001884  EF47  F00C         	goto	l3526
  1617   001888                     u2420:
  1618   001888                     
  1619                           ;MCAL_Layer/Interupt/mcal_external_interrupt.c: 340:                     (INTCON3bits.IN
      +                          T2IP = 0);
  1620   001888  9EF0               	bcf	240,7,c	;volatile
  1621                           
  1622                           ;MCAL_Layer/Interupt/mcal_external_interrupt.c: 341:                 }
  1623   00188A  EF73  F00C         	goto	l3532
  1624   00188E                     l3526:
  1625   00188E  EE20 F005          	lfsr	2,5
  1626   001892  5063               	movf	EXT_INTX_Prioity_Set@INT_X^0,w,c
  1627   001894  26D9               	addwf	fsr2l,f,c
  1628   001896  5064               	movf	(EXT_INTX_Prioity_Set@INT_X+1)^0,w,c
  1629   001898  22DA               	addwfc	fsr2h,f,c
  1630   00189A  04DE               	decf	postinc2,w,c
  1631   00189C  A4D8               	btfss	status,2,c
  1632   00189E  EF53  F00C         	goto	u2431
  1633   0018A2  EF55  F00C         	goto	u2430
  1634   0018A6                     u2431:
  1635   0018A6  EF73  F00C         	goto	l3532
  1636   0018AA                     u2430:
  1637   0018AA                     
  1638                           ;MCAL_Layer/Interupt/mcal_external_interrupt.c: 343:                     (INTCON3bits.IN
      +                          T2IP = 1);
  1639   0018AA  8EF0               	bsf	240,7,c	;volatile
  1640                           
  1641                           ;MCAL_Layer/Interupt/mcal_external_interrupt.c: 344:                 }
  1642   0018AC  EF73  F00C         	goto	l3532
  1643   0018B0                     l3530:
  1644   0018B0  EE20 F003          	lfsr	2,3
  1645   0018B4  5063               	movf	EXT_INTX_Prioity_Set@INT_X^0,w,c
  1646   0018B6  26D9               	addwf	fsr2l,f,c
  1647   0018B8  5064               	movf	(EXT_INTX_Prioity_Set@INT_X+1)^0,w,c
  1648   0018BA  22DA               	addwfc	fsr2h,f,c
  1649   0018BC  50DF               	movf	indf2,w,c
  1650   0018BE  6E65               	movwf	??_EXT_INTX_Prioity_Set^0,c
  1651   0018C0  6A66               	clrf	(??_EXT_INTX_Prioity_Set+1)^0,c
  1652                           
  1653                           ; Switch on 2 bytes has been partitioned into a top level switch of size 1, and 1 sub-sw
      +                          itches
  1654                           ; Switch size 1, requested type "simple"
  1655                           ; Number of cases is 1, Range of values is 0 to 0
  1656                           ; switch strategies available:
  1657                           ; Name         Instructions Cycles
  1658                           ; simple_byte            4     3 (average)
  1659                           ;	Chosen strategy is simple_byte
  1660   0018C2  5066               	movf	(??_EXT_INTX_Prioity_Set+1)^0,w,c
  1661   0018C4  0A00               	xorlw	0	; case 0
  1662   0018C6  B4D8               	btfsc	status,2,c
  1663   0018C8  EF68  F00C         	goto	l5534
  1664   0018CC  EF73  F00C         	goto	l3532
  1665   0018D0                     l5534:
  1666                           
  1667                           ; Switch size 1, requested type "simple"
  1668                           ; Number of cases is 2, Range of values is 1 to 2
  1669                           ; switch strategies available:
  1670                           ; Name         Instructions Cycles
  1671                           ; simple_byte            7     4 (average)
  1672                           ;	Chosen strategy is simple_byte
  1673   0018D0  5065               	movf	??_EXT_INTX_Prioity_Set^0,w,c
  1674   0018D2  0A01               	xorlw	1	; case 1
  1675   0018D4  B4D8               	btfsc	status,2,c
  1676   0018D6  EF14  F00C         	goto	l3514
  1677   0018DA  0A03               	xorlw	3	; case 2
  1678   0018DC  B4D8               	btfsc	status,2,c
  1679   0018DE  EF36  F00C         	goto	l3522
  1680   0018E2  EF73  F00C         	goto	l3532
  1681   0018E6                     l624:
  1682   0018E6                     l3532:
  1683                           
  1684                           ;MCAL_Layer/Interupt/mcal_external_interrupt.c: 352:     return ret;
  1685   0018E6  0E01               	movlw	1
  1686   0018E8  0012               	return		;funcret
  1687   0018EA                     __end_of_EXT_INTX_Prioity_Set:
  1688                           	callstack 0
  1689                           
  1690 ;; *************** function _EXT_INTX_Pin_Initialize *****************
  1691 ;; Defined at:
  1692 ;;		line 357 in file "MCAL_Layer/Interupt/mcal_external_interrupt.c"
  1693 ;; Parameters:    Size  Location     Type
  1694 ;;  INT_X           2   20[COMRAM] PTR struct .
  1695 ;;		 -> INT_0(6), 
  1696 ;; Auto vars:     Size  Location     Type
  1697 ;;  ret             1   22[COMRAM] unsigned char 
  1698 ;; Return value:  Size  Location     Type
  1699 ;;                  1    wreg      unsigned char 
  1700 ;; Registers used:
  1701 ;;		wreg, fsr2l, fsr2h, status,2, status,0, prodl, prodh, cstack
  1702 ;; Tracked objects:
  1703 ;;		On entry : 0/0
  1704 ;;		On exit  : 0/0
  1705 ;;		Unchanged: 0/0
  1706 ;; Data sizes:     COMRAM   BANK0   BANK1   BANK2   BANK3   BANK4   BANK5   BANK6   BANK7   BANK8   BANK9  BANK10  BANK1
      +1  BANK12  BANK13  BANK14  BANK15
  1707 ;;      Params:         2       0       0       0       0       0       0       0       0       0       0       0       
      +0       0       0       0       0
  1708 ;;      Locals:         1       0       0       0       0       0       0       0       0       0       0       0       
      +0       0       0       0       0
  1709 ;;      Temps:          0       0       0       0       0       0       0       0       0       0       0       0       
      +0       0       0       0       0
  1710 ;;      Totals:         3       0       0       0       0       0       0       0       0       0       0       0       
      +0       0       0       0       0
  1711 ;;Total ram usage:        3 bytes
  1712 ;; Hardware stack levels used: 1
  1713 ;; Hardware stack levels required when called: 7
  1714 ;; This function calls:
  1715 ;;		_gpio_pin_direction_intialize
  1716 ;; This function is called by:
  1717 ;;		_EXT_INTX_Intialize
  1718 ;; This function uses a non-reentrant model
  1719 ;;
  1720                           
  1721                           	psect	text8
  1722   001F3C                     __ptext8:
  1723                           	callstack 0
  1724   001F3C                     _EXT_INTX_Pin_Initialize:
  1725                           	callstack 22
  1726   001F3C                     
  1727                           ;MCAL_Layer/Interupt/mcal_external_interrupt.c: 361:     if(INT_X == ((void*)0)){
  1728   001F3C  506B               	movf	EXT_INTX_Pin_Initialize@INT_X^0,w,c
  1729   001F3E  106C               	iorwf	(EXT_INTX_Pin_Initialize@INT_X+1)^0,w,c
  1730   001F40  A4D8               	btfss	status,2,c
  1731   001F42  EFA5  F00F         	goto	u3791
  1732   001F46  EFA7  F00F         	goto	u3790
  1733   001F4A                     u3791:
  1734   001F4A  EFAB  F00F         	goto	l4606
  1735   001F4E                     u3790:
  1736   001F4E                     
  1737                           ;MCAL_Layer/Interupt/mcal_external_interrupt.c: 362:         ret = (Std_ReturnType)0x01;
  1738   001F4E  0E01               	movlw	1
  1739   001F50  6E6D               	movwf	EXT_INTX_Pin_Initialize@ret^0,c
  1740                           
  1741                           ;MCAL_Layer/Interupt/mcal_external_interrupt.c: 363:     }
  1742   001F52  EFB4  F00F         	goto	l4608
  1743   001F56                     l4606:
  1744                           
  1745                           ;MCAL_Layer/Interupt/mcal_external_interrupt.c: 365:         ret = gpio_pin_direction_in
      +                          tialize(&(INT_X->INTX_PIN));
  1746   001F56  0E02               	movlw	2
  1747   001F58  246B               	addwf	EXT_INTX_Pin_Initialize@INT_X^0,w,c
  1748   001F5A  6E63               	movwf	gpio_pin_direction_intialize@str^0,c
  1749   001F5C  0E00               	movlw	0
  1750   001F5E  206C               	addwfc	(EXT_INTX_Pin_Initialize@INT_X+1)^0,w,c
  1751   001F60  6E64               	movwf	(gpio_pin_direction_intialize@str+1)^0,c
  1752   001F62  EC7B  F00A         	call	_gpio_pin_direction_intialize	;wreg free
  1753   001F66  6E6D               	movwf	EXT_INTX_Pin_Initialize@ret^0,c
  1754   001F68                     l4608:
  1755                           
  1756                           ;MCAL_Layer/Interupt/mcal_external_interrupt.c: 367:     return ret;
  1757   001F68  506D               	movf	EXT_INTX_Pin_Initialize@ret^0,w,c
  1758   001F6A  0012               	return		;funcret
  1759   001F6C                     __end_of_EXT_INTX_Pin_Initialize:
  1760                           	callstack 0
  1761                           
  1762 ;; *************** function _gpio_pin_direction_intialize *****************
  1763 ;; Defined at:
  1764 ;;		line 20 in file "MCAL_Layer/GPIO/hal_gpio.c"
  1765 ;; Parameters:    Size  Location     Type
  1766 ;;  str             2   12[COMRAM] PTR const struct .
  1767 ;;		 -> INT_0.INTX_PIN(1), INT_0(6), relay_initialize@rel_pin(1), led_intialize@LED_IN(1), 
  1768 ;; Auto vars:     Size  Location     Type
  1769 ;;  ret             1    0        unsigned char 
  1770 ;; Return value:  Size  Location     Type
  1771 ;;                  1    wreg      unsigned char 
  1772 ;; Registers used:
  1773 ;;		wreg, fsr2l, fsr2h, status,2, status,0, prodl, prodh
  1774 ;; Tracked objects:
  1775 ;;		On entry : 0/0
  1776 ;;		On exit  : 0/0
  1777 ;;		Unchanged: 0/0
  1778 ;; Data sizes:     COMRAM   BANK0   BANK1   BANK2   BANK3   BANK4   BANK5   BANK6   BANK7   BANK8   BANK9  BANK10  BANK1
      +1  BANK12  BANK13  BANK14  BANK15
  1779 ;;      Params:         2       0       0       0       0       0       0       0       0       0       0       0       
      +0       0       0       0       0
  1780 ;;      Locals:         0       0       0       0       0       0       0       0       0       0       0       0       
      +0       0       0       0       0
  1781 ;;      Temps:          6       0       0       0       0       0       0       0       0       0       0       0       
      +0       0       0       0       0
  1782 ;;      Totals:         8       0       0       0       0       0       0       0       0       0       0       0       
      +0       0       0       0       0
  1783 ;;Total ram usage:        8 bytes
  1784 ;; Hardware stack levels used: 1
  1785 ;; Hardware stack levels required when called: 6
  1786 ;; This function calls:
  1787 ;;		Nothing
  1788 ;; This function is called by:
  1789 ;;		_gpio_pin_intialize
  1790 ;;		_EXT_INTX_Pin_Initialize
  1791 ;;		_button_initialize
  1792 ;;		_keypad_initialize
  1793 ;;		_dc_motor_initialize
  1794 ;;		_EXT_RBX_Pin_Initialize
  1795 ;; This function uses a non-reentrant model
  1796 ;;
  1797                           
  1798                           	psect	text9
  1799   0014F6                     __ptext9:
  1800                           	callstack 0
  1801   0014F6                     _gpio_pin_direction_intialize:
  1802                           	callstack 22
  1803   0014F6                     
  1804                           ;MCAL_Layer/GPIO/hal_gpio.c: 24:     if(str == ((void*)0) || (str->PIN > 7)){
  1805   0014F6  5063               	movf	gpio_pin_direction_intialize@str^0,w,c
  1806   0014F8  1064               	iorwf	(gpio_pin_direction_intialize@str+1)^0,w,c
  1807   0014FA  B4D8               	btfsc	status,2,c
  1808   0014FC  EF82  F00A         	goto	u3631
  1809   001500  EF84  F00A         	goto	u3630
  1810   001504                     u3631:
  1811   001504  EF93  F00A         	goto	l4510
  1812   001508                     u3630:
  1813   001508  C063  FFD9         	movff	gpio_pin_direction_intialize@str,fsr2l
  1814   00150C  C064  FFDA         	movff	gpio_pin_direction_intialize@str+1,fsr2h
  1815   001510  50DF               	movf	223,w,c
  1816   001512  0B07               	andlw	7
  1817   001514  6E65               	movwf	??_gpio_pin_direction_intialize^0,c
  1818   001516  0E07               	movlw	7
  1819   001518  6465               	cpfsgt	??_gpio_pin_direction_intialize^0,c
  1820   00151A  EF91  F00A         	goto	u3641
  1821   00151E  EF93  F00A         	goto	u3640
  1822   001522                     u3641:
  1823   001522  EF95  F00A         	goto	l4512
  1824   001526                     u3640:
  1825   001526                     l4510:
  1826                           
  1827                           ;MCAL_Layer/GPIO/hal_gpio.c: 26:     }
  1828   001526  EF08  F00B         	goto	l374
  1829   00152A                     l4512:
  1830                           
  1831                           ;MCAL_Layer/GPIO/hal_gpio.c: 28:         if(GPIO_DIRECTION_OUTPUT == str->Direction){
  1832   00152A  C063  FFD9         	movff	gpio_pin_direction_intialize@str,fsr2l
  1833   00152E  C064  FFDA         	movff	gpio_pin_direction_intialize@str+1,fsr2h
  1834   001532  BCDF               	btfsc	indf2,6,c
  1835   001534  EF9E  F00A         	goto	u3651
  1836   001538  EFA0  F00A         	goto	u3650
  1837   00153C                     u3651:
  1838   00153C  EFD1  F00A         	goto	l4516
  1839   001540                     u3650:
  1840   001540                     
  1841                           ;MCAL_Layer/GPIO/hal_gpio.c: 30:             (*TRIS_REG[str->PORT] &= ~(0x01 << str->PIN
      +                          ));
  1842   001540  C063  FFD9         	movff	gpio_pin_direction_intialize@str,fsr2l
  1843   001544  C064  FFDA         	movff	gpio_pin_direction_intialize@str+1,fsr2h
  1844   001548  50DF               	movf	223,w,c
  1845   00154A  0B07               	andlw	7
  1846   00154C  6E65               	movwf	??_gpio_pin_direction_intialize^0,c
  1847   00154E  0E01               	movlw	1
  1848   001550  6E66               	movwf	(??_gpio_pin_direction_intialize+1)^0,c
  1849   001552  2A65               	incf	??_gpio_pin_direction_intialize^0,f,c
  1850   001554  EFAE  F00A         	goto	u3664
  1851   001558                     u3665:
  1852   001558  90D8               	bcf	status,0,c
  1853   00155A  3666               	rlcf	(??_gpio_pin_direction_intialize+1)^0,f,c
  1854   00155C                     u3664:
  1855   00155C  2E65               	decfsz	??_gpio_pin_direction_intialize^0,f,c
  1856   00155E  EFAC  F00A         	goto	u3665
  1857   001562  5066               	movf	(??_gpio_pin_direction_intialize+1)^0,w,c
  1858   001564  0AFF               	xorlw	255
  1859   001566  6E67               	movwf	(??_gpio_pin_direction_intialize+2)^0,c
  1860   001568  C063  FFD9         	movff	gpio_pin_direction_intialize@str,fsr2l
  1861   00156C  C064  FFDA         	movff	gpio_pin_direction_intialize@str+1,fsr2h
  1862   001570  30DF               	rrcf	223,w,c
  1863   001572  32E8               	rrcf	wreg,f,c
  1864   001574  32E8               	rrcf	wreg,f,c
  1865   001576  0B07               	andlw	7
  1866   001578  6E68               	movwf	(??_gpio_pin_direction_intialize+3)^0,c
  1867   00157A  5068               	movf	(??_gpio_pin_direction_intialize+3)^0,w,c
  1868   00157C  0D02               	mullw	2
  1869   00157E  0E0B               	movlw	low _TRIS_REG
  1870   001580  24F3               	addwf	243,w,c
  1871   001582  6ED9               	movwf	fsr2l,c
  1872   001584  0E00               	movlw	high _TRIS_REG
  1873   001586  20F4               	addwfc	prodh,w,c
  1874   001588  6EDA               	movwf	fsr2h,c
  1875   00158A  CFDE F069          	movff	postinc2,??_gpio_pin_direction_intialize+4
  1876   00158E  CFDD F06A          	movff	postdec2,??_gpio_pin_direction_intialize+5
  1877   001592  C069  FFD9         	movff	??_gpio_pin_direction_intialize+4,fsr2l
  1878   001596  C06A  FFDA         	movff	??_gpio_pin_direction_intialize+5,fsr2h
  1879   00159A  5067               	movf	(??_gpio_pin_direction_intialize+2)^0,w,c
  1880   00159C  16DF               	andwf	indf2,f,c
  1881                           
  1882                           ;MCAL_Layer/GPIO/hal_gpio.c: 31:         }
  1883   00159E  EF08  F00B         	goto	l374
  1884   0015A2                     l4516:
  1885   0015A2  C063  FFD9         	movff	gpio_pin_direction_intialize@str,fsr2l
  1886   0015A6  C064  FFDA         	movff	gpio_pin_direction_intialize@str+1,fsr2h
  1887   0015AA  ACDF               	btfss	indf2,6,c
  1888   0015AC  EFDA  F00A         	goto	u3671
  1889   0015B0  EFDC  F00A         	goto	u3670
  1890   0015B4                     u3671:
  1891   0015B4  EF93  F00A         	goto	l4510
  1892   0015B8                     u3670:
  1893   0015B8                     
  1894                           ;MCAL_Layer/GPIO/hal_gpio.c: 34:             (*TRIS_REG[str->PORT] |= (0x01 << str->PIN)
      +                          );
  1895   0015B8  C063  FFD9         	movff	gpio_pin_direction_intialize@str,fsr2l
  1896   0015BC  C064  FFDA         	movff	gpio_pin_direction_intialize@str+1,fsr2h
  1897   0015C0  50DF               	movf	223,w,c
  1898   0015C2  0B07               	andlw	7
  1899   0015C4  6E65               	movwf	??_gpio_pin_direction_intialize^0,c
  1900   0015C6  0E01               	movlw	1
  1901   0015C8  6E66               	movwf	(??_gpio_pin_direction_intialize+1)^0,c
  1902   0015CA  2A65               	incf	??_gpio_pin_direction_intialize^0,f,c
  1903   0015CC  EFEA  F00A         	goto	u3684
  1904   0015D0                     u3685:
  1905   0015D0  90D8               	bcf	status,0,c
  1906   0015D2  3666               	rlcf	(??_gpio_pin_direction_intialize+1)^0,f,c
  1907   0015D4                     u3684:
  1908   0015D4  2E65               	decfsz	??_gpio_pin_direction_intialize^0,f,c
  1909   0015D6  EFE8  F00A         	goto	u3685
  1910   0015DA  C063  FFD9         	movff	gpio_pin_direction_intialize@str,fsr2l
  1911   0015DE  C064  FFDA         	movff	gpio_pin_direction_intialize@str+1,fsr2h
  1912   0015E2  30DF               	rrcf	223,w,c
  1913   0015E4  32E8               	rrcf	wreg,f,c
  1914   0015E6  32E8               	rrcf	wreg,f,c
  1915   0015E8  0B07               	andlw	7
  1916   0015EA  6E67               	movwf	(??_gpio_pin_direction_intialize+2)^0,c
  1917   0015EC  5067               	movf	(??_gpio_pin_direction_intialize+2)^0,w,c
  1918   0015EE  0D02               	mullw	2
  1919   0015F0  0E0B               	movlw	low _TRIS_REG
  1920   0015F2  24F3               	addwf	243,w,c
  1921   0015F4  6ED9               	movwf	fsr2l,c
  1922   0015F6  0E00               	movlw	high _TRIS_REG
  1923   0015F8  20F4               	addwfc	prodh,w,c
  1924   0015FA  6EDA               	movwf	fsr2h,c
  1925   0015FC  CFDE F068          	movff	postinc2,??_gpio_pin_direction_intialize+3
  1926   001600  CFDD F069          	movff	postdec2,??_gpio_pin_direction_intialize+4
  1927   001604  C068  FFD9         	movff	??_gpio_pin_direction_intialize+3,fsr2l
  1928   001608  C069  FFDA         	movff	??_gpio_pin_direction_intialize+4,fsr2h
  1929   00160C  5066               	movf	(??_gpio_pin_direction_intialize+1)^0,w,c
  1930   00160E  12DF               	iorwf	indf2,f,c
  1931   001610                     l374:
  1932                           
  1933                           ;MCAL_Layer/GPIO/hal_gpio.c: 40:     return ret;
  1934   001610  0E01               	movlw	1
  1935   001612  0012               	return		;funcret
  1936   001614                     __end_of_gpio_pin_direction_intialize:
  1937                           	callstack 0
  1938                           
  1939 ;; *************** function _EXT_INTX_Function_Initialize *****************
  1940 ;; Defined at:
  1941 ;;		line 370 in file "MCAL_Layer/Interupt/mcal_external_interrupt.c"
  1942 ;; Parameters:    Size  Location     Type
  1943 ;;  INT_X           2   14[COMRAM] PTR struct .
  1944 ;;		 -> INT_0(6), 
  1945 ;; Auto vars:     Size  Location     Type
  1946 ;;  ret             1   18[COMRAM] unsigned char 
  1947 ;; Return value:  Size  Location     Type
  1948 ;;                  1    wreg      unsigned char 
  1949 ;; Registers used:
  1950 ;;		wreg, fsr2l, fsr2h, status,2, status,0, cstack
  1951 ;; Tracked objects:
  1952 ;;		On entry : 0/0
  1953 ;;		On exit  : 0/0
  1954 ;;		Unchanged: 0/0
  1955 ;; Data sizes:     COMRAM   BANK0   BANK1   BANK2   BANK3   BANK4   BANK5   BANK6   BANK7   BANK8   BANK9  BANK10  BANK1
      +1  BANK12  BANK13  BANK14  BANK15
  1956 ;;      Params:         2       0       0       0       0       0       0       0       0       0       0       0       
      +0       0       0       0       0
  1957 ;;      Locals:         1       0       0       0       0       0       0       0       0       0       0       0       
      +0       0       0       0       0
  1958 ;;      Temps:          2       0       0       0       0       0       0       0       0       0       0       0       
      +0       0       0       0       0
  1959 ;;      Totals:         5       0       0       0       0       0       0       0       0       0       0       0       
      +0       0       0       0       0
  1960 ;;Total ram usage:        5 bytes
  1961 ;; Hardware stack levels used: 1
  1962 ;; Hardware stack levels required when called: 7
  1963 ;; This function calls:
  1964 ;;		_INT0_SetInterruptHandler
  1965 ;;		_INT1_SetInterruptHandler
  1966 ;;		_INT2_SetInterruptHandler
  1967 ;; This function is called by:
  1968 ;;		_EXT_INTX_Intialize
  1969 ;; This function uses a non-reentrant model
  1970 ;;
  1971                           
  1972                           	psect	text10
  1973   0018EA                     __ptext10:
  1974                           	callstack 0
  1975   0018EA                     _EXT_INTX_Function_Initialize:
  1976                           	callstack 22
  1977   0018EA                     
  1978                           ;MCAL_Layer/Interupt/mcal_external_interrupt.c: 372:     Std_ReturnType ret = (Std_Retur
      +                          nType)0x01;
  1979   0018EA  0E01               	movlw	1
  1980   0018EC  6E69               	movwf	EXT_INTX_Function_Initialize@ret^0,c
  1981   0018EE                     
  1982                           ;MCAL_Layer/Interupt/mcal_external_interrupt.c: 374:     if(INT_X == ((void*)0)){
  1983   0018EE  5065               	movf	EXT_INTX_Function_Initialize@INT_X^0,w,c
  1984   0018F0  1066               	iorwf	(EXT_INTX_Function_Initialize@INT_X+1)^0,w,c
  1985   0018F2  A4D8               	btfss	status,2,c
  1986   0018F4  EF7E  F00C         	goto	u2441
  1987   0018F8  EF80  F00C         	goto	u2440
  1988   0018FC                     u2441:
  1989   0018FC  EFAB  F00C         	goto	l3552
  1990   001900                     u2440:
  1991   001900                     
  1992                           ;MCAL_Layer/Interupt/mcal_external_interrupt.c: 375:         ret = (Std_ReturnType)0x01;
  1993   001900  0E01               	movlw	1
  1994   001902  6E69               	movwf	EXT_INTX_Function_Initialize@ret^0,c
  1995                           
  1996                           ;MCAL_Layer/Interupt/mcal_external_interrupt.c: 376:     }
  1997   001904  EFCA  F00C         	goto	l3554
  1998   001908                     l3546:
  1999                           
  2000                           ;MCAL_Layer/Interupt/mcal_external_interrupt.c: 380:                 ret = INT0_SetInter
      +                          ruptHandler(INT_X->EXT_InterruptHandler);
  2001   001908  C065  FFD9         	movff	EXT_INTX_Function_Initialize@INT_X,fsr2l
  2002   00190C  C066  FFDA         	movff	EXT_INTX_Function_Initialize@INT_X+1,fsr2h
  2003   001910  CFDE F063          	movff	postinc2,INT0_SetInterruptHandler@InterruptHandler
  2004   001914  CFDD F064          	movff	postdec2,INT0_SetInterruptHandler@InterruptHandler+1
  2005   001918  EC35  F010         	call	_INT0_SetInterruptHandler	;wreg free
  2006   00191C  6E69               	movwf	EXT_INTX_Function_Initialize@ret^0,c
  2007                           
  2008                           ;MCAL_Layer/Interupt/mcal_external_interrupt.c: 381:                 break;
  2009   00191E  EFCA  F00C         	goto	l3554
  2010   001922                     l3548:
  2011                           
  2012                           ;MCAL_Layer/Interupt/mcal_external_interrupt.c: 383:                 ret = INT1_SetInter
      +                          ruptHandler(INT_X->EXT_InterruptHandler);
  2013   001922  C065  FFD9         	movff	EXT_INTX_Function_Initialize@INT_X,fsr2l
  2014   001926  C066  FFDA         	movff	EXT_INTX_Function_Initialize@INT_X+1,fsr2h
  2015   00192A  CFDE F063          	movff	postinc2,INT1_SetInterruptHandler@InterruptHandler
  2016   00192E  CFDD F064          	movff	postdec2,INT1_SetInterruptHandler@InterruptHandler+1
  2017   001932  EC22  F010         	call	_INT1_SetInterruptHandler	;wreg free
  2018   001936  6E69               	movwf	EXT_INTX_Function_Initialize@ret^0,c
  2019                           
  2020                           ;MCAL_Layer/Interupt/mcal_external_interrupt.c: 384:                 break;
  2021   001938  EFCA  F00C         	goto	l3554
  2022   00193C                     l3550:
  2023                           
  2024                           ;MCAL_Layer/Interupt/mcal_external_interrupt.c: 386:                 ret = INT2_SetInter
      +                          ruptHandler(INT_X->EXT_InterruptHandler);
  2025   00193C  C065  FFD9         	movff	EXT_INTX_Function_Initialize@INT_X,fsr2l
  2026   001940  C066  FFDA         	movff	EXT_INTX_Function_Initialize@INT_X+1,fsr2h
  2027   001944  CFDE F063          	movff	postinc2,INT2_SetInterruptHandler@InterruptHandler
  2028   001948  CFDD F064          	movff	postdec2,INT2_SetInterruptHandler@InterruptHandler+1
  2029   00194C  EC0F  F010         	call	_INT2_SetInterruptHandler	;wreg free
  2030   001950  6E69               	movwf	EXT_INTX_Function_Initialize@ret^0,c
  2031                           
  2032                           ;MCAL_Layer/Interupt/mcal_external_interrupt.c: 387:                 break;
  2033   001952  EFCA  F00C         	goto	l3554
  2034   001956                     l3552:
  2035   001956  EE20 F003          	lfsr	2,3
  2036   00195A  5065               	movf	EXT_INTX_Function_Initialize@INT_X^0,w,c
  2037   00195C  26D9               	addwf	fsr2l,f,c
  2038   00195E  5066               	movf	(EXT_INTX_Function_Initialize@INT_X+1)^0,w,c
  2039   001960  22DA               	addwfc	fsr2h,f,c
  2040   001962  50DF               	movf	indf2,w,c
  2041   001964  6E67               	movwf	??_EXT_INTX_Function_Initialize^0,c
  2042   001966  6A68               	clrf	(??_EXT_INTX_Function_Initialize+1)^0,c
  2043                           
  2044                           ; Switch on 2 bytes has been partitioned into a top level switch of size 1, and 1 sub-sw
      +                          itches
  2045                           ; Switch size 1, requested type "simple"
  2046                           ; Number of cases is 1, Range of values is 0 to 0
  2047                           ; switch strategies available:
  2048                           ; Name         Instructions Cycles
  2049                           ; simple_byte            4     3 (average)
  2050                           ;	Chosen strategy is simple_byte
  2051   001968  5068               	movf	(??_EXT_INTX_Function_Initialize+1)^0,w,c
  2052   00196A  0A00               	xorlw	0	; case 0
  2053   00196C  B4D8               	btfsc	status,2,c
  2054   00196E  EFBB  F00C         	goto	l5536
  2055   001972  EFCA  F00C         	goto	l3554
  2056   001976                     l5536:
  2057                           
  2058                           ; Switch size 1, requested type "simple"
  2059                           ; Number of cases is 3, Range of values is 0 to 2
  2060                           ; switch strategies available:
  2061                           ; Name         Instructions Cycles
  2062                           ; simple_byte           10     6 (average)
  2063                           ;	Chosen strategy is simple_byte
  2064   001976  5067               	movf	??_EXT_INTX_Function_Initialize^0,w,c
  2065   001978  0A00               	xorlw	0	; case 0
  2066   00197A  B4D8               	btfsc	status,2,c
  2067   00197C  EF84  F00C         	goto	l3546
  2068   001980  0A01               	xorlw	1	; case 1
  2069   001982  B4D8               	btfsc	status,2,c
  2070   001984  EF91  F00C         	goto	l3548
  2071   001988  0A03               	xorlw	3	; case 2
  2072   00198A  B4D8               	btfsc	status,2,c
  2073   00198C  EF9E  F00C         	goto	l3550
  2074   001990  EFCA  F00C         	goto	l3554
  2075   001994                     l3554:
  2076                           
  2077                           ;MCAL_Layer/Interupt/mcal_external_interrupt.c: 391:     return ret;
  2078   001994  5069               	movf	EXT_INTX_Function_Initialize@ret^0,w,c
  2079   001996  0012               	return		;funcret
  2080   001998                     __end_of_EXT_INTX_Function_Initialize:
  2081                           	callstack 0
  2082                           
  2083 ;; *************** function _INT2_SetInterruptHandler *****************
  2084 ;; Defined at:
  2085 ;;		line 421 in file "MCAL_Layer/Interupt/mcal_external_interrupt.c"
  2086 ;; Parameters:    Size  Location     Type
  2087 ;;  InterruptHan    2   12[COMRAM] PTR FTN()void 
  2088 ;;		 -> INTERRUPT_FUNC_0(1), 
  2089 ;; Auto vars:     Size  Location     Type
  2090 ;;  ret             1    0        unsigned char 
  2091 ;; Return value:  Size  Location     Type
  2092 ;;                  1    wreg      unsigned char 
  2093 ;; Registers used:
  2094 ;;		wreg, status,2, status,0
  2095 ;; Tracked objects:
  2096 ;;		On entry : 0/0
  2097 ;;		On exit  : 0/0
  2098 ;;		Unchanged: 0/0
  2099 ;; Data sizes:     COMRAM   BANK0   BANK1   BANK2   BANK3   BANK4   BANK5   BANK6   BANK7   BANK8   BANK9  BANK10  BANK1
      +1  BANK12  BANK13  BANK14  BANK15
  2100 ;;      Params:         2       0       0       0       0       0       0       0       0       0       0       0       
      +0       0       0       0       0
  2101 ;;      Locals:         0       0       0       0       0       0       0       0       0       0       0       0       
      +0       0       0       0       0
  2102 ;;      Temps:          0       0       0       0       0       0       0       0       0       0       0       0       
      +0       0       0       0       0
  2103 ;;      Totals:         2       0       0       0       0       0       0       0       0       0       0       0       
      +0       0       0       0       0
  2104 ;;Total ram usage:        2 bytes
  2105 ;; Hardware stack levels used: 1
  2106 ;; Hardware stack levels required when called: 6
  2107 ;; This function calls:
  2108 ;;		Nothing
  2109 ;; This function is called by:
  2110 ;;		_EXT_INTX_Function_Initialize
  2111 ;; This function uses a non-reentrant model
  2112 ;;
  2113                           
  2114                           	psect	text11
  2115   00201E                     __ptext11:
  2116                           	callstack 0
  2117   00201E                     _INT2_SetInterruptHandler:
  2118                           	callstack 22
  2119   00201E                     
  2120                           ;MCAL_Layer/Interupt/mcal_external_interrupt.c: 423:     if(((void*)0) == InterruptHandl
      +                          er){
  2121   00201E  5063               	movf	INT2_SetInterruptHandler@InterruptHandler^0,w,c
  2122   002020  1064               	iorwf	(INT2_SetInterruptHandler@InterruptHandler+1)^0,w,c
  2123   002022  A4D8               	btfss	status,2,c
  2124   002024  EF16  F010         	goto	u2201
  2125   002028  EF18  F010         	goto	u2200
  2126   00202C                     u2201:
  2127   00202C  EF1A  F010         	goto	l3340
  2128   002030                     u2200:
  2129   002030                     l3338:
  2130                           
  2131                           ;MCAL_Layer/Interupt/mcal_external_interrupt.c: 425:     }
  2132   002030  EF20  F010         	goto	l3344
  2133   002034                     l3340:
  2134                           
  2135                           ;MCAL_Layer/Interupt/mcal_external_interrupt.c: 428:         INT2_InterruptHandler = Int
      +                          erruptHandler;
  2136   002034  C063  F049         	movff	INT2_SetInterruptHandler@InterruptHandler,_INT2_InterruptHandler
  2137   002038  C064  F04A         	movff	INT2_SetInterruptHandler@InterruptHandler+1,_INT2_InterruptHandler+1
  2138   00203C  EF18  F010         	goto	l3338
  2139   002040                     l3344:
  2140                           
  2141                           ;MCAL_Layer/Interupt/mcal_external_interrupt.c: 431:     return ret;
  2142   002040  0E01               	movlw	1
  2143   002042  0012               	return		;funcret
  2144   002044                     __end_of_INT2_SetInterruptHandler:
  2145                           	callstack 0
  2146                           
  2147 ;; *************** function _INT1_SetInterruptHandler *****************
  2148 ;; Defined at:
  2149 ;;		line 408 in file "MCAL_Layer/Interupt/mcal_external_interrupt.c"
  2150 ;; Parameters:    Size  Location     Type
  2151 ;;  InterruptHan    2   12[COMRAM] PTR FTN()void 
  2152 ;;		 -> INTERRUPT_FUNC_0(1), 
  2153 ;; Auto vars:     Size  Location     Type
  2154 ;;  ret             1    0        unsigned char 
  2155 ;; Return value:  Size  Location     Type
  2156 ;;                  1    wreg      unsigned char 
  2157 ;; Registers used:
  2158 ;;		wreg, status,2, status,0
  2159 ;; Tracked objects:
  2160 ;;		On entry : 0/0
  2161 ;;		On exit  : 0/0
  2162 ;;		Unchanged: 0/0
  2163 ;; Data sizes:     COMRAM   BANK0   BANK1   BANK2   BANK3   BANK4   BANK5   BANK6   BANK7   BANK8   BANK9  BANK10  BANK1
      +1  BANK12  BANK13  BANK14  BANK15
  2164 ;;      Params:         2       0       0       0       0       0       0       0       0       0       0       0       
      +0       0       0       0       0
  2165 ;;      Locals:         0       0       0       0       0       0       0       0       0       0       0       0       
      +0       0       0       0       0
  2166 ;;      Temps:          0       0       0       0       0       0       0       0       0       0       0       0       
      +0       0       0       0       0
  2167 ;;      Totals:         2       0       0       0       0       0       0       0       0       0       0       0       
      +0       0       0       0       0
  2168 ;;Total ram usage:        2 bytes
  2169 ;; Hardware stack levels used: 1
  2170 ;; Hardware stack levels required when called: 6
  2171 ;; This function calls:
  2172 ;;		Nothing
  2173 ;; This function is called by:
  2174 ;;		_EXT_INTX_Function_Initialize
  2175 ;; This function uses a non-reentrant model
  2176 ;;
  2177                           
  2178                           	psect	text12
  2179   002044                     __ptext12:
  2180                           	callstack 0
  2181   002044                     _INT1_SetInterruptHandler:
  2182                           	callstack 22
  2183   002044                     
  2184                           ;MCAL_Layer/Interupt/mcal_external_interrupt.c: 410:     if(((void*)0) == InterruptHandl
      +                          er){
  2185   002044  5063               	movf	INT1_SetInterruptHandler@InterruptHandler^0,w,c
  2186   002046  1064               	iorwf	(INT1_SetInterruptHandler@InterruptHandler+1)^0,w,c
  2187   002048  A4D8               	btfss	status,2,c
  2188   00204A  EF29  F010         	goto	u2191
  2189   00204E  EF2B  F010         	goto	u2190
  2190   002052                     u2191:
  2191   002052  EF2D  F010         	goto	l3326
  2192   002056                     u2190:
  2193   002056                     l3324:
  2194                           
  2195                           ;MCAL_Layer/Interupt/mcal_external_interrupt.c: 412:     }
  2196   002056  EF33  F010         	goto	l3330
  2197   00205A                     l3326:
  2198                           
  2199                           ;MCAL_Layer/Interupt/mcal_external_interrupt.c: 415:         INT1_InterruptHandler = Int
      +                          erruptHandler;
  2200   00205A  C063  F04B         	movff	INT1_SetInterruptHandler@InterruptHandler,_INT1_InterruptHandler
  2201   00205E  C064  F04C         	movff	INT1_SetInterruptHandler@InterruptHandler+1,_INT1_InterruptHandler+1
  2202   002062  EF2B  F010         	goto	l3324
  2203   002066                     l3330:
  2204                           
  2205                           ;MCAL_Layer/Interupt/mcal_external_interrupt.c: 418:     return ret;
  2206   002066  0E01               	movlw	1
  2207   002068  0012               	return		;funcret
  2208   00206A                     __end_of_INT1_SetInterruptHandler:
  2209                           	callstack 0
  2210                           
  2211 ;; *************** function _INT0_SetInterruptHandler *****************
  2212 ;; Defined at:
  2213 ;;		line 395 in file "MCAL_Layer/Interupt/mcal_external_interrupt.c"
  2214 ;; Parameters:    Size  Location     Type
  2215 ;;  InterruptHan    2   12[COMRAM] PTR FTN()void 
  2216 ;;		 -> INTERRUPT_FUNC_0(1), 
  2217 ;; Auto vars:     Size  Location     Type
  2218 ;;  ret             1    0        unsigned char 
  2219 ;; Return value:  Size  Location     Type
  2220 ;;                  1    wreg      unsigned char 
  2221 ;; Registers used:
  2222 ;;		wreg, status,2, status,0
  2223 ;; Tracked objects:
  2224 ;;		On entry : 0/0
  2225 ;;		On exit  : 0/0
  2226 ;;		Unchanged: 0/0
  2227 ;; Data sizes:     COMRAM   BANK0   BANK1   BANK2   BANK3   BANK4   BANK5   BANK6   BANK7   BANK8   BANK9  BANK10  BANK1
      +1  BANK12  BANK13  BANK14  BANK15
  2228 ;;      Params:         2       0       0       0       0       0       0       0       0       0       0       0       
      +0       0       0       0       0
  2229 ;;      Locals:         0       0       0       0       0       0       0       0       0       0       0       0       
      +0       0       0       0       0
  2230 ;;      Temps:          0       0       0       0       0       0       0       0       0       0       0       0       
      +0       0       0       0       0
  2231 ;;      Totals:         2       0       0       0       0       0       0       0       0       0       0       0       
      +0       0       0       0       0
  2232 ;;Total ram usage:        2 bytes
  2233 ;; Hardware stack levels used: 1
  2234 ;; Hardware stack levels required when called: 6
  2235 ;; This function calls:
  2236 ;;		Nothing
  2237 ;; This function is called by:
  2238 ;;		_EXT_INTX_Function_Initialize
  2239 ;; This function uses a non-reentrant model
  2240 ;;
  2241                           
  2242                           	psect	text13
  2243   00206A                     __ptext13:
  2244                           	callstack 0
  2245   00206A                     _INT0_SetInterruptHandler:
  2246                           	callstack 22
  2247   00206A                     
  2248                           ;MCAL_Layer/Interupt/mcal_external_interrupt.c: 397:     if(((void*)0) == InterruptHandl
      +                          er){
  2249   00206A  5063               	movf	INT0_SetInterruptHandler@InterruptHandler^0,w,c
  2250   00206C  1064               	iorwf	(INT0_SetInterruptHandler@InterruptHandler+1)^0,w,c
  2251   00206E  A4D8               	btfss	status,2,c
  2252   002070  EF3C  F010         	goto	u2181
  2253   002074  EF3E  F010         	goto	u2180
  2254   002078                     u2181:
  2255   002078  EF40  F010         	goto	l3312
  2256   00207C                     u2180:
  2257   00207C                     l3310:
  2258                           
  2259                           ;MCAL_Layer/Interupt/mcal_external_interrupt.c: 399:     }
  2260   00207C  EF46  F010         	goto	l3316
  2261   002080                     l3312:
  2262                           
  2263                           ;MCAL_Layer/Interupt/mcal_external_interrupt.c: 402:         INT0_InterruptHandler = Int
      +                          erruptHandler;
  2264   002080  C063  F04D         	movff	INT0_SetInterruptHandler@InterruptHandler,_INT0_InterruptHandler
  2265   002084  C064  F04E         	movff	INT0_SetInterruptHandler@InterruptHandler+1,_INT0_InterruptHandler+1
  2266   002088  EF3E  F010         	goto	l3310
  2267   00208C                     l3316:
  2268                           
  2269                           ;MCAL_Layer/Interupt/mcal_external_interrupt.c: 405:     return ret;
  2270   00208C  0E01               	movlw	1
  2271   00208E  0012               	return		;funcret
  2272   002090                     __end_of_INT0_SetInterruptHandler:
  2273                           	callstack 0
  2274                           
  2275 ;; *************** function _EXT_INTX_Enable *****************
  2276 ;; Defined at:
  2277 ;;		line 153 in file "MCAL_Layer/Interupt/mcal_external_interrupt.c"
  2278 ;; Parameters:    Size  Location     Type
  2279 ;;  INT_X           2   12[COMRAM] PTR struct .
  2280 ;;		 -> INT_0(6), 
  2281 ;; Auto vars:     Size  Location     Type
  2282 ;;  ret             1    0        unsigned char 
  2283 ;; Return value:  Size  Location     Type
  2284 ;;                  1    wreg      unsigned char 
  2285 ;; Registers used:
  2286 ;;		wreg, fsr2l, fsr2h, status,2, status,0
  2287 ;; Tracked objects:
  2288 ;;		On entry : 0/0
  2289 ;;		On exit  : 0/0
  2290 ;;		Unchanged: 0/0
  2291 ;; Data sizes:     COMRAM   BANK0   BANK1   BANK2   BANK3   BANK4   BANK5   BANK6   BANK7   BANK8   BANK9  BANK10  BANK1
      +1  BANK12  BANK13  BANK14  BANK15
  2292 ;;      Params:         2       0       0       0       0       0       0       0       0       0       0       0       
      +0       0       0       0       0
  2293 ;;      Locals:         0       0       0       0       0       0       0       0       0       0       0       0       
      +0       0       0       0       0
  2294 ;;      Temps:          2       0       0       0       0       0       0       0       0       0       0       0       
      +0       0       0       0       0
  2295 ;;      Totals:         4       0       0       0       0       0       0       0       0       0       0       0       
      +0       0       0       0       0
  2296 ;;Total ram usage:        4 bytes
  2297 ;; Hardware stack levels used: 1
  2298 ;; Hardware stack levels required when called: 6
  2299 ;; This function calls:
  2300 ;;		Nothing
  2301 ;; This function is called by:
  2302 ;;		_EXT_INTX_Intialize
  2303 ;; This function uses a non-reentrant model
  2304 ;;
  2305                           
  2306                           	psect	text14
  2307   00171C                     __ptext14:
  2308                           	callstack 0
  2309   00171C                     _EXT_INTX_Enable:
  2310                           	callstack 23
  2311   00171C                     
  2312                           ;MCAL_Layer/Interupt/mcal_external_interrupt.c: 157:     if(INT_X == ((void*)0)){
  2313   00171C  5063               	movf	EXT_INTX_Enable@INT_X^0,w,c
  2314   00171E  1064               	iorwf	(EXT_INTX_Enable@INT_X+1)^0,w,c
  2315   001720  A4D8               	btfss	status,2,c
  2316   001722  EF95  F00B         	goto	u2451
  2317   001726  EF97  F00B         	goto	u2450
  2318   00172A                     u2451:
  2319   00172A  EFE8  F00B         	goto	l3584
  2320   00172E                     u2450:
  2321   00172E                     
  2322                           ;MCAL_Layer/Interupt/mcal_external_interrupt.c: 159:     }
  2323   00172E  EF07  F00C         	goto	l3586
  2324   001732                     l555:
  2325                           
  2326                           ;MCAL_Layer/Interupt/mcal_external_interrupt.c: 164:                 (RCONbits.IPEN = 1)
      +                          ;
  2327   001732  8ED0               	bsf	208,7,c	;volatile
  2328                           
  2329                           ;MCAL_Layer/Interupt/mcal_external_interrupt.c: 165:                 (INTCONbits.GIEH = 
      +                          1);
  2330   001734  8EF2               	bsf	242,7,c	;volatile
  2331                           
  2332                           ;MCAL_Layer/Interupt/mcal_external_interrupt.c: 172:                 (INTCONbits.INT0IE 
      +                          = 1);
  2333   001736  88F2               	bsf	242,4,c	;volatile
  2334                           
  2335                           ;MCAL_Layer/Interupt/mcal_external_interrupt.c: 173:                 break;
  2336   001738  EF07  F00C         	goto	l3586
  2337   00173C                     l557:
  2338                           
  2339                           ;MCAL_Layer/Interupt/mcal_external_interrupt.c: 177:                 (RCONbits.IPEN = 1)
      +                          ;
  2340   00173C  8ED0               	bsf	208,7,c	;volatile
  2341   00173E                     
  2342                           ;MCAL_Layer/Interupt/mcal_external_interrupt.c: 179:                 if (Low_Priority ==
      +                           INT_X->INTX_PRIORITY) {
  2343   00173E  EE20 F005          	lfsr	2,5
  2344   001742  5063               	movf	EXT_INTX_Enable@INT_X^0,w,c
  2345   001744  26D9               	addwf	fsr2l,f,c
  2346   001746  5064               	movf	(EXT_INTX_Enable@INT_X+1)^0,w,c
  2347   001748  22DA               	addwfc	fsr2h,f,c
  2348   00174A  50DF               	movf	indf2,w,c
  2349   00174C  A4D8               	btfss	status,2,c
  2350   00174E  EFAB  F00B         	goto	u2461
  2351   001752  EFAD  F00B         	goto	u2460
  2352   001756                     u2461:
  2353   001756  EFB1  F00B         	goto	l3572
  2354   00175A                     u2460:
  2355   00175A                     
  2356                           ;MCAL_Layer/Interupt/mcal_external_interrupt.c: 180:                     (INTCONbits.GIE
      +                          H = 1);
  2357   00175A  8EF2               	bsf	242,7,c	;volatile
  2358                           
  2359                           ;MCAL_Layer/Interupt/mcal_external_interrupt.c: 181:                     (INTCONbits.GIE
      +                          L = 1);
  2360   00175C  8CF2               	bsf	242,6,c	;volatile
  2361                           
  2362                           ;MCAL_Layer/Interupt/mcal_external_interrupt.c: 182:                 } else if (High_Pri
      +                          ority == INT_X->INTX_PRIORITY) {
  2363   00175E  EFC0  F00B         	goto	l559
  2364   001762                     l3572:
  2365   001762  EE20 F005          	lfsr	2,5
  2366   001766  5063               	movf	EXT_INTX_Enable@INT_X^0,w,c
  2367   001768  26D9               	addwf	fsr2l,f,c
  2368   00176A  5064               	movf	(EXT_INTX_Enable@INT_X+1)^0,w,c
  2369   00176C  22DA               	addwfc	fsr2h,f,c
  2370   00176E  04DE               	decf	postinc2,w,c
  2371   001770  A4D8               	btfss	status,2,c
  2372   001772  EFBD  F00B         	goto	u2471
  2373   001776  EFBF  F00B         	goto	u2470
  2374   00177A                     u2471:
  2375   00177A  EFC0  F00B         	goto	l559
  2376   00177E                     u2470:
  2377   00177E                     
  2378                           ;MCAL_Layer/Interupt/mcal_external_interrupt.c: 183:                     (INTCONbits.GIE
      +                          H = 1);
  2379   00177E  8EF2               	bsf	242,7,c	;volatile
  2380   001780                     l559:
  2381                           
  2382                           ;MCAL_Layer/Interupt/mcal_external_interrupt.c: 191:                 (INTCON3bits.INT1IE
      +                           = 1);
  2383   001780  86F0               	bsf	240,3,c	;volatile
  2384                           
  2385                           ;MCAL_Layer/Interupt/mcal_external_interrupt.c: 192:                 break;
  2386   001782  EF07  F00C         	goto	l3586
  2387   001786                     l562:
  2388                           
  2389                           ;MCAL_Layer/Interupt/mcal_external_interrupt.c: 196:                 (RCONbits.IPEN = 1)
      +                          ;
  2390   001786  8ED0               	bsf	208,7,c	;volatile
  2391   001788                     
  2392                           ;MCAL_Layer/Interupt/mcal_external_interrupt.c: 198:                 if (Low_Priority ==
      +                           INT_X->INTX_PRIORITY) {
  2393   001788  EE20 F005          	lfsr	2,5
  2394   00178C  5063               	movf	EXT_INTX_Enable@INT_X^0,w,c
  2395   00178E  26D9               	addwf	fsr2l,f,c
  2396   001790  5064               	movf	(EXT_INTX_Enable@INT_X+1)^0,w,c
  2397   001792  22DA               	addwfc	fsr2h,f,c
  2398   001794  50DF               	movf	indf2,w,c
  2399   001796  A4D8               	btfss	status,2,c
  2400   001798  EFD0  F00B         	goto	u2481
  2401   00179C  EFD2  F00B         	goto	u2480
  2402   0017A0                     u2481:
  2403   0017A0  EFD6  F00B         	goto	l3580
  2404   0017A4                     u2480:
  2405   0017A4                     
  2406                           ;MCAL_Layer/Interupt/mcal_external_interrupt.c: 199:                     (INTCONbits.GIE
      +                          H = 1);
  2407   0017A4  8EF2               	bsf	242,7,c	;volatile
  2408                           
  2409                           ;MCAL_Layer/Interupt/mcal_external_interrupt.c: 200:                     (INTCONbits.GIE
      +                          L = 1);
  2410   0017A6  8CF2               	bsf	242,6,c	;volatile
  2411                           
  2412                           ;MCAL_Layer/Interupt/mcal_external_interrupt.c: 201:                 } else if (High_Pri
      +                          ority == INT_X->INTX_PRIORITY) {
  2413   0017A8  EFE5  F00B         	goto	l564
  2414   0017AC                     l3580:
  2415   0017AC  EE20 F005          	lfsr	2,5
  2416   0017B0  5063               	movf	EXT_INTX_Enable@INT_X^0,w,c
  2417   0017B2  26D9               	addwf	fsr2l,f,c
  2418   0017B4  5064               	movf	(EXT_INTX_Enable@INT_X+1)^0,w,c
  2419   0017B6  22DA               	addwfc	fsr2h,f,c
  2420   0017B8  04DE               	decf	postinc2,w,c
  2421   0017BA  A4D8               	btfss	status,2,c
  2422   0017BC  EFE2  F00B         	goto	u2491
  2423   0017C0  EFE4  F00B         	goto	u2490
  2424   0017C4                     u2491:
  2425   0017C4  EFE5  F00B         	goto	l564
  2426   0017C8                     u2490:
  2427   0017C8                     
  2428                           ;MCAL_Layer/Interupt/mcal_external_interrupt.c: 202:                     (INTCONbits.GIE
      +                          H = 1);
  2429   0017C8  8EF2               	bsf	242,7,c	;volatile
  2430   0017CA                     l564:
  2431                           
  2432                           ;MCAL_Layer/Interupt/mcal_external_interrupt.c: 211:                 (INTCON3bits.INT2IE
      +                           = 1);
  2433   0017CA  88F0               	bsf	240,4,c	;volatile
  2434                           
  2435                           ;MCAL_Layer/Interupt/mcal_external_interrupt.c: 212:                 break;
  2436   0017CC  EF07  F00C         	goto	l3586
  2437   0017D0                     l3584:
  2438   0017D0  EE20 F003          	lfsr	2,3
  2439   0017D4  5063               	movf	EXT_INTX_Enable@INT_X^0,w,c
  2440   0017D6  26D9               	addwf	fsr2l,f,c
  2441   0017D8  5064               	movf	(EXT_INTX_Enable@INT_X+1)^0,w,c
  2442   0017DA  22DA               	addwfc	fsr2h,f,c
  2443   0017DC  50DF               	movf	indf2,w,c
  2444   0017DE  6E65               	movwf	??_EXT_INTX_Enable^0,c
  2445   0017E0  6A66               	clrf	(??_EXT_INTX_Enable+1)^0,c
  2446                           
  2447                           ; Switch on 2 bytes has been partitioned into a top level switch of size 1, and 1 sub-sw
      +                          itches
  2448                           ; Switch size 1, requested type "simple"
  2449                           ; Number of cases is 1, Range of values is 0 to 0
  2450                           ; switch strategies available:
  2451                           ; Name         Instructions Cycles
  2452                           ; simple_byte            4     3 (average)
  2453                           ;	Chosen strategy is simple_byte
  2454   0017E2  5066               	movf	(??_EXT_INTX_Enable+1)^0,w,c
  2455   0017E4  0A00               	xorlw	0	; case 0
  2456   0017E6  B4D8               	btfsc	status,2,c
  2457   0017E8  EFF8  F00B         	goto	l5538
  2458   0017EC  EF07  F00C         	goto	l3586
  2459   0017F0                     l5538:
  2460                           
  2461                           ; Switch size 1, requested type "simple"
  2462                           ; Number of cases is 3, Range of values is 0 to 2
  2463                           ; switch strategies available:
  2464                           ; Name         Instructions Cycles
  2465                           ; simple_byte           10     6 (average)
  2466                           ;	Chosen strategy is simple_byte
  2467   0017F0  5065               	movf	??_EXT_INTX_Enable^0,w,c
  2468   0017F2  0A00               	xorlw	0	; case 0
  2469   0017F4  B4D8               	btfsc	status,2,c
  2470   0017F6  EF99  F00B         	goto	l555
  2471   0017FA  0A01               	xorlw	1	; case 1
  2472   0017FC  B4D8               	btfsc	status,2,c
  2473   0017FE  EF9E  F00B         	goto	l557
  2474   001802  0A03               	xorlw	3	; case 2
  2475   001804  B4D8               	btfsc	status,2,c
  2476   001806  EFC3  F00B         	goto	l562
  2477   00180A  EF07  F00C         	goto	l3586
  2478   00180E                     l3586:
  2479                           
  2480                           ;MCAL_Layer/Interupt/mcal_external_interrupt.c: 217:     return ret;
  2481   00180E  0E01               	movlw	1
  2482   001810  0012               	return		;funcret
  2483   001812                     __end_of_EXT_INTX_Enable:
  2484                           	callstack 0
  2485                           
  2486 ;; *************** function _EXT_INTX_Edge_Set *****************
  2487 ;; Defined at:
  2488 ;;		line 268 in file "MCAL_Layer/Interupt/mcal_external_interrupt.c"
  2489 ;; Parameters:    Size  Location     Type
  2490 ;;  INT_X           2   12[COMRAM] PTR struct .
  2491 ;;		 -> INT_0(6), 
  2492 ;; Auto vars:     Size  Location     Type
  2493 ;;  ret             1    0        unsigned char 
  2494 ;; Return value:  Size  Location     Type
  2495 ;;                  1    wreg      unsigned char 
  2496 ;; Registers used:
  2497 ;;		wreg, fsr2l, fsr2h, status,2, status,0
  2498 ;; Tracked objects:
  2499 ;;		On entry : 0/0
  2500 ;;		On exit  : 0/0
  2501 ;;		Unchanged: 0/0
  2502 ;; Data sizes:     COMRAM   BANK0   BANK1   BANK2   BANK3   BANK4   BANK5   BANK6   BANK7   BANK8   BANK9  BANK10  BANK1
      +1  BANK12  BANK13  BANK14  BANK15
  2503 ;;      Params:         2       0       0       0       0       0       0       0       0       0       0       0       
      +0       0       0       0       0
  2504 ;;      Locals:         0       0       0       0       0       0       0       0       0       0       0       0       
      +0       0       0       0       0
  2505 ;;      Temps:          2       0       0       0       0       0       0       0       0       0       0       0       
      +0       0       0       0       0
  2506 ;;      Totals:         4       0       0       0       0       0       0       0       0       0       0       0       
      +0       0       0       0       0
  2507 ;;Total ram usage:        4 bytes
  2508 ;; Hardware stack levels used: 1
  2509 ;; Hardware stack levels required when called: 6
  2510 ;; This function calls:
  2511 ;;		Nothing
  2512 ;; This function is called by:
  2513 ;;		_EXT_INTX_Intialize
  2514 ;; This function uses a non-reentrant model
  2515 ;;
  2516                           
  2517                           	psect	text15
  2518   0012AE                     __ptext15:
  2519                           	callstack 0
  2520   0012AE                     _EXT_INTX_Edge_Set:
  2521                           	callstack 23
  2522   0012AE                     
  2523                           ;MCAL_Layer/Interupt/mcal_external_interrupt.c: 272:     if(INT_X == ((void*)0)){
  2524   0012AE  5063               	movf	EXT_INTX_Edge_Set@INT_X^0,w,c
  2525   0012B0  1064               	iorwf	(EXT_INTX_Edge_Set@INT_X+1)^0,w,c
  2526   0012B2  A4D8               	btfss	status,2,c
  2527   0012B4  EF5E  F009         	goto	u2311
  2528   0012B8  EF60  F009         	goto	u2310
  2529   0012BC                     u2311:
  2530   0012BC  EFCA  F009         	goto	l3486
  2531   0012C0                     u2310:
  2532   0012C0                     
  2533                           ;MCAL_Layer/Interupt/mcal_external_interrupt.c: 274:     }
  2534   0012C0  EFEA  F009         	goto	l613
  2535   0012C4                     l3462:
  2536                           
  2537                           ;MCAL_Layer/Interupt/mcal_external_interrupt.c: 278:                 if(Interrupt_Rising
      +                          _Edge == INT_X->INTX_EDGE){
  2538   0012C4  EE20 F004          	lfsr	2,4
  2539   0012C8  5063               	movf	EXT_INTX_Edge_Set@INT_X^0,w,c
  2540   0012CA  26D9               	addwf	fsr2l,f,c
  2541   0012CC  5064               	movf	(EXT_INTX_Edge_Set@INT_X+1)^0,w,c
  2542   0012CE  22DA               	addwfc	fsr2h,f,c
  2543   0012D0  04DE               	decf	postinc2,w,c
  2544   0012D2  A4D8               	btfss	status,2,c
  2545   0012D4  EF6E  F009         	goto	u2321
  2546   0012D8  EF70  F009         	goto	u2320
  2547   0012DC                     u2321:
  2548   0012DC  EF73  F009         	goto	l3466
  2549   0012E0                     u2320:
  2550   0012E0                     
  2551                           ;MCAL_Layer/Interupt/mcal_external_interrupt.c: 279:                     (INTCON2bits.IN
      +                          TEDG0 = 1);
  2552   0012E0  8CF1               	bsf	241,6,c	;volatile
  2553                           
  2554                           ;MCAL_Layer/Interupt/mcal_external_interrupt.c: 280:                 }
  2555   0012E2  EFE9  F009         	goto	l3488
  2556   0012E6                     l3466:
  2557   0012E6  EE20 F004          	lfsr	2,4
  2558   0012EA  5063               	movf	EXT_INTX_Edge_Set@INT_X^0,w,c
  2559   0012EC  26D9               	addwf	fsr2l,f,c
  2560   0012EE  5064               	movf	(EXT_INTX_Edge_Set@INT_X+1)^0,w,c
  2561   0012F0  22DA               	addwfc	fsr2h,f,c
  2562   0012F2  50DF               	movf	indf2,w,c
  2563   0012F4  A4D8               	btfss	status,2,c
  2564   0012F6  EF7F  F009         	goto	u2331
  2565   0012FA  EF81  F009         	goto	u2330
  2566   0012FE                     u2331:
  2567   0012FE  EF84  F009         	goto	l598
  2568   001302                     u2330:
  2569   001302                     
  2570                           ;MCAL_Layer/Interupt/mcal_external_interrupt.c: 282:                     (INTCON2bits.IN
      +                          TEDG0 = 0);
  2571   001302  9CF1               	bcf	241,6,c	;volatile
  2572                           
  2573                           ;MCAL_Layer/Interupt/mcal_external_interrupt.c: 283:                 }
  2574   001304  EFE9  F009         	goto	l3488
  2575   001308                     l598:
  2576                           
  2577                           ;MCAL_Layer/Interupt/mcal_external_interrupt.c: 287:                 break;
  2578   001308  EFE9  F009         	goto	l3488
  2579   00130C                     l3470:
  2580                           
  2581                           ;MCAL_Layer/Interupt/mcal_external_interrupt.c: 289:                 if(Interrupt_Rising
      +                          _Edge == INT_X->INTX_EDGE){
  2582   00130C  EE20 F004          	lfsr	2,4
  2583   001310  5063               	movf	EXT_INTX_Edge_Set@INT_X^0,w,c
  2584   001312  26D9               	addwf	fsr2l,f,c
  2585   001314  5064               	movf	(EXT_INTX_Edge_Set@INT_X+1)^0,w,c
  2586   001316  22DA               	addwfc	fsr2h,f,c
  2587   001318  04DE               	decf	postinc2,w,c
  2588   00131A  A4D8               	btfss	status,2,c
  2589   00131C  EF92  F009         	goto	u2341
  2590   001320  EF94  F009         	goto	u2340
  2591   001324                     u2341:
  2592   001324  EF97  F009         	goto	l3474
  2593   001328                     u2340:
  2594   001328                     
  2595                           ;MCAL_Layer/Interupt/mcal_external_interrupt.c: 290:                     (INTCON2bits.IN
      +                          TEDG1 = 1);
  2596   001328  8AF1               	bsf	241,5,c	;volatile
  2597                           
  2598                           ;MCAL_Layer/Interupt/mcal_external_interrupt.c: 291:                 }
  2599   00132A  EFE9  F009         	goto	l3488
  2600   00132E                     l3474:
  2601   00132E  EE20 F004          	lfsr	2,4
  2602   001332  5063               	movf	EXT_INTX_Edge_Set@INT_X^0,w,c
  2603   001334  26D9               	addwf	fsr2l,f,c
  2604   001336  5064               	movf	(EXT_INTX_Edge_Set@INT_X+1)^0,w,c
  2605   001338  22DA               	addwfc	fsr2h,f,c
  2606   00133A  50DF               	movf	indf2,w,c
  2607   00133C  A4D8               	btfss	status,2,c
  2608   00133E  EFA3  F009         	goto	u2351
  2609   001342  EFA5  F009         	goto	u2350
  2610   001346                     u2351:
  2611   001346  EFE9  F009         	goto	l3488
  2612   00134A                     u2350:
  2613   00134A                     
  2614                           ;MCAL_Layer/Interupt/mcal_external_interrupt.c: 293:                     (INTCON2bits.IN
      +                          TEDG1 = 0);
  2615   00134A  9AF1               	bcf	241,5,c	;volatile
  2616                           
  2617                           ;MCAL_Layer/Interupt/mcal_external_interrupt.c: 294:                 }
  2618   00134C  EFE9  F009         	goto	l3488
  2619   001350                     l3478:
  2620                           
  2621                           ;MCAL_Layer/Interupt/mcal_external_interrupt.c: 300:                 if(Interrupt_Rising
      +                          _Edge == INT_X->INTX_EDGE){
  2622   001350  EE20 F004          	lfsr	2,4
  2623   001354  5063               	movf	EXT_INTX_Edge_Set@INT_X^0,w,c
  2624   001356  26D9               	addwf	fsr2l,f,c
  2625   001358  5064               	movf	(EXT_INTX_Edge_Set@INT_X+1)^0,w,c
  2626   00135A  22DA               	addwfc	fsr2h,f,c
  2627   00135C  04DE               	decf	postinc2,w,c
  2628   00135E  A4D8               	btfss	status,2,c
  2629   001360  EFB4  F009         	goto	u2361
  2630   001364  EFB6  F009         	goto	u2360
  2631   001368                     u2361:
  2632   001368  EFB9  F009         	goto	l3482
  2633   00136C                     u2360:
  2634   00136C                     
  2635                           ;MCAL_Layer/Interupt/mcal_external_interrupt.c: 301:                     (INTCON2bits.IN
      +                          TEDG2 = 1);
  2636   00136C  88F1               	bsf	241,4,c	;volatile
  2637                           
  2638                           ;MCAL_Layer/Interupt/mcal_external_interrupt.c: 302:                 }
  2639   00136E  EFE9  F009         	goto	l3488
  2640   001372                     l3482:
  2641   001372  EE20 F004          	lfsr	2,4
  2642   001376  5063               	movf	EXT_INTX_Edge_Set@INT_X^0,w,c
  2643   001378  26D9               	addwf	fsr2l,f,c
  2644   00137A  5064               	movf	(EXT_INTX_Edge_Set@INT_X+1)^0,w,c
  2645   00137C  22DA               	addwfc	fsr2h,f,c
  2646   00137E  50DF               	movf	indf2,w,c
  2647   001380  A4D8               	btfss	status,2,c
  2648   001382  EFC5  F009         	goto	u2371
  2649   001386  EFC7  F009         	goto	u2370
  2650   00138A                     u2371:
  2651   00138A  EFE9  F009         	goto	l3488
  2652   00138E                     u2370:
  2653   00138E                     
  2654                           ;MCAL_Layer/Interupt/mcal_external_interrupt.c: 304:                     (INTCON2bits.IN
      +                          TEDG2 = 0);
  2655   00138E  98F1               	bcf	241,4,c	;volatile
  2656                           
  2657                           ;MCAL_Layer/Interupt/mcal_external_interrupt.c: 305:                 }
  2658   001390  EFE9  F009         	goto	l3488
  2659   001394                     l3486:
  2660   001394  EE20 F003          	lfsr	2,3
  2661   001398  5063               	movf	EXT_INTX_Edge_Set@INT_X^0,w,c
  2662   00139A  26D9               	addwf	fsr2l,f,c
  2663   00139C  5064               	movf	(EXT_INTX_Edge_Set@INT_X+1)^0,w,c
  2664   00139E  22DA               	addwfc	fsr2h,f,c
  2665   0013A0  50DF               	movf	indf2,w,c
  2666   0013A2  6E65               	movwf	??_EXT_INTX_Edge_Set^0,c
  2667   0013A4  6A66               	clrf	(??_EXT_INTX_Edge_Set+1)^0,c
  2668                           
  2669                           ; Switch on 2 bytes has been partitioned into a top level switch of size 1, and 1 sub-sw
      +                          itches
  2670                           ; Switch size 1, requested type "simple"
  2671                           ; Number of cases is 1, Range of values is 0 to 0
  2672                           ; switch strategies available:
  2673                           ; Name         Instructions Cycles
  2674                           ; simple_byte            4     3 (average)
  2675                           ;	Chosen strategy is simple_byte
  2676   0013A6  5066               	movf	(??_EXT_INTX_Edge_Set+1)^0,w,c
  2677   0013A8  0A00               	xorlw	0	; case 0
  2678   0013AA  B4D8               	btfsc	status,2,c
  2679   0013AC  EFDA  F009         	goto	l5540
  2680   0013B0  EFE9  F009         	goto	l3488
  2681   0013B4                     l5540:
  2682                           
  2683                           ; Switch size 1, requested type "simple"
  2684                           ; Number of cases is 3, Range of values is 0 to 2
  2685                           ; switch strategies available:
  2686                           ; Name         Instructions Cycles
  2687                           ; simple_byte           10     6 (average)
  2688                           ;	Chosen strategy is simple_byte
  2689   0013B4  5065               	movf	??_EXT_INTX_Edge_Set^0,w,c
  2690   0013B6  0A00               	xorlw	0	; case 0
  2691   0013B8  B4D8               	btfsc	status,2,c
  2692   0013BA  EF62  F009         	goto	l3462
  2693   0013BE  0A01               	xorlw	1	; case 1
  2694   0013C0  B4D8               	btfsc	status,2,c
  2695   0013C2  EF86  F009         	goto	l3470
  2696   0013C6  0A03               	xorlw	3	; case 2
  2697   0013C8  B4D8               	btfsc	status,2,c
  2698   0013CA  EFA8  F009         	goto	l3478
  2699   0013CE  EFE9  F009         	goto	l3488
  2700   0013D2                     l3488:
  2701                           
  2702                           ;MCAL_Layer/Interupt/mcal_external_interrupt.c: 312:     return ret;
  2703   0013D2  0E01               	movlw	1
  2704   0013D4                     l613:
  2705   0013D4  0012               	return		;funcret
  2706   0013D6                     __end_of_EXT_INTX_Edge_Set:
  2707                           	callstack 0
  2708                           
  2709 ;; *************** function _EXT_INTX_Disable_Helper *****************
  2710 ;; Defined at:
  2711 ;;		line 220 in file "MCAL_Layer/Interupt/mcal_external_interrupt.c"
  2712 ;; Parameters:    Size  Location     Type
  2713 ;;  INT_X           2   12[COMRAM] PTR struct .
  2714 ;;		 -> INT_0(6), 
  2715 ;; Auto vars:     Size  Location     Type
  2716 ;;  ret             1    0        unsigned char 
  2717 ;; Return value:  Size  Location     Type
  2718 ;;                  1    wreg      unsigned char 
  2719 ;; Registers used:
  2720 ;;		wreg, fsr2l, fsr2h, status,2, status,0
  2721 ;; Tracked objects:
  2722 ;;		On entry : 0/0
  2723 ;;		On exit  : 0/0
  2724 ;;		Unchanged: 0/0
  2725 ;; Data sizes:     COMRAM   BANK0   BANK1   BANK2   BANK3   BANK4   BANK5   BANK6   BANK7   BANK8   BANK9  BANK10  BANK1
      +1  BANK12  BANK13  BANK14  BANK15
  2726 ;;      Params:         2       0       0       0       0       0       0       0       0       0       0       0       
      +0       0       0       0       0
  2727 ;;      Locals:         0       0       0       0       0       0       0       0       0       0       0       0       
      +0       0       0       0       0
  2728 ;;      Temps:          2       0       0       0       0       0       0       0       0       0       0       0       
      +0       0       0       0       0
  2729 ;;      Totals:         4       0       0       0       0       0       0       0       0       0       0       0       
      +0       0       0       0       0
  2730 ;;Total ram usage:        4 bytes
  2731 ;; Hardware stack levels used: 1
  2732 ;; Hardware stack levels required when called: 6
  2733 ;; This function calls:
  2734 ;;		Nothing
  2735 ;; This function is called by:
  2736 ;;		_EXT_INTX_Intialize
  2737 ;;		_EXT_INTX_Disable
  2738 ;; This function uses a non-reentrant model
  2739 ;;
  2740                           
  2741                           	psect	text16
  2742   001BE0                     __ptext16:
  2743                           	callstack 0
  2744   001BE0                     _EXT_INTX_Disable_Helper:
  2745                           	callstack 23
  2746   001BE0                     
  2747                           ;MCAL_Layer/Interupt/mcal_external_interrupt.c: 224:     if(INT_X == ((void*)0)){
  2748   001BE0  5063               	movf	EXT_INTX_Disable_Helper@INT_X^0,w,c
  2749   001BE2  1064               	iorwf	(EXT_INTX_Disable_Helper@INT_X+1)^0,w,c
  2750   001BE4  A4D8               	btfss	status,2,c
  2751   001BE6  EFF7  F00D         	goto	u2291
  2752   001BEA  EFF9  F00D         	goto	u2290
  2753   001BEE                     u2291:
  2754   001BEE  EF04  F00E         	goto	l3430
  2755   001BF2                     u2290:
  2756   001BF2                     
  2757                           ;MCAL_Layer/Interupt/mcal_external_interrupt.c: 226:     }
  2758   001BF2  EF23  F00E         	goto	l3432
  2759   001BF6                     l574:
  2760                           
  2761                           ;MCAL_Layer/Interupt/mcal_external_interrupt.c: 230:                 (INTCONbits.INT0IE 
      +                          = 0);
  2762   001BF6  98F2               	bcf	242,4,c	;volatile
  2763                           
  2764                           ;MCAL_Layer/Interupt/mcal_external_interrupt.c: 231:                 break;
  2765   001BF8  EF23  F00E         	goto	l3432
  2766   001BFC                     l576:
  2767                           
  2768                           ;MCAL_Layer/Interupt/mcal_external_interrupt.c: 233:                 (INTCON3bits.INT1IE
      +                           = 0);
  2769   001BFC  96F0               	bcf	240,3,c	;volatile
  2770                           
  2771                           ;MCAL_Layer/Interupt/mcal_external_interrupt.c: 234:                 break;
  2772   001BFE  EF23  F00E         	goto	l3432
  2773   001C02                     l577:
  2774                           
  2775                           ;MCAL_Layer/Interupt/mcal_external_interrupt.c: 236:                 (INTCON3bits.INT2IE
      +                           = 0);
  2776   001C02  98F0               	bcf	240,4,c	;volatile
  2777                           
  2778                           ;MCAL_Layer/Interupt/mcal_external_interrupt.c: 237:                 break;
  2779   001C04  EF23  F00E         	goto	l3432
  2780   001C08                     l3430:
  2781   001C08  EE20 F003          	lfsr	2,3
  2782   001C0C  5063               	movf	EXT_INTX_Disable_Helper@INT_X^0,w,c
  2783   001C0E  26D9               	addwf	fsr2l,f,c
  2784   001C10  5064               	movf	(EXT_INTX_Disable_Helper@INT_X+1)^0,w,c
  2785   001C12  22DA               	addwfc	fsr2h,f,c
  2786   001C14  50DF               	movf	indf2,w,c
  2787   001C16  6E65               	movwf	??_EXT_INTX_Disable_Helper^0,c
  2788   001C18  6A66               	clrf	(??_EXT_INTX_Disable_Helper+1)^0,c
  2789                           
  2790                           ; Switch on 2 bytes has been partitioned into a top level switch of size 1, and 1 sub-sw
      +                          itches
  2791                           ; Switch size 1, requested type "simple"
  2792                           ; Number of cases is 1, Range of values is 0 to 0
  2793                           ; switch strategies available:
  2794                           ; Name         Instructions Cycles
  2795                           ; simple_byte            4     3 (average)
  2796                           ;	Chosen strategy is simple_byte
  2797   001C1A  5066               	movf	(??_EXT_INTX_Disable_Helper+1)^0,w,c
  2798   001C1C  0A00               	xorlw	0	; case 0
  2799   001C1E  B4D8               	btfsc	status,2,c
  2800   001C20  EF14  F00E         	goto	l5542
  2801   001C24  EF23  F00E         	goto	l3432
  2802   001C28                     l5542:
  2803                           
  2804                           ; Switch size 1, requested type "simple"
  2805                           ; Number of cases is 3, Range of values is 0 to 2
  2806                           ; switch strategies available:
  2807                           ; Name         Instructions Cycles
  2808                           ; simple_byte           10     6 (average)
  2809                           ;	Chosen strategy is simple_byte
  2810   001C28  5065               	movf	??_EXT_INTX_Disable_Helper^0,w,c
  2811   001C2A  0A00               	xorlw	0	; case 0
  2812   001C2C  B4D8               	btfsc	status,2,c
  2813   001C2E  EFFB  F00D         	goto	l574
  2814   001C32  0A01               	xorlw	1	; case 1
  2815   001C34  B4D8               	btfsc	status,2,c
  2816   001C36  EFFE  F00D         	goto	l576
  2817   001C3A  0A03               	xorlw	3	; case 2
  2818   001C3C  B4D8               	btfsc	status,2,c
  2819   001C3E  EF01  F00E         	goto	l577
  2820   001C42  EF23  F00E         	goto	l3432
  2821   001C46                     l3432:
  2822                           
  2823                           ;MCAL_Layer/Interupt/mcal_external_interrupt.c: 241:     return ret;
  2824   001C46  0E01               	movlw	1
  2825   001C48  0012               	return		;funcret
  2826   001C4A                     __end_of_EXT_INTX_Disable_Helper:
  2827                           	callstack 0
  2828                           
  2829 ;; *************** function _EXT_INTX_Clear_Flag *****************
  2830 ;; Defined at:
  2831 ;;		line 244 in file "MCAL_Layer/Interupt/mcal_external_interrupt.c"
  2832 ;; Parameters:    Size  Location     Type
  2833 ;;  INT_X           2   12[COMRAM] PTR struct .
  2834 ;;		 -> INT_0(6), 
  2835 ;; Auto vars:     Size  Location     Type
  2836 ;;  ret             1    0        unsigned char 
  2837 ;; Return value:  Size  Location     Type
  2838 ;;                  1    wreg      unsigned char 
  2839 ;; Registers used:
  2840 ;;		wreg, fsr2l, fsr2h, status,2, status,0
  2841 ;; Tracked objects:
  2842 ;;		On entry : 0/0
  2843 ;;		On exit  : 0/0
  2844 ;;		Unchanged: 0/0
  2845 ;; Data sizes:     COMRAM   BANK0   BANK1   BANK2   BANK3   BANK4   BANK5   BANK6   BANK7   BANK8   BANK9  BANK10  BANK1
      +1  BANK12  BANK13  BANK14  BANK15
  2846 ;;      Params:         2       0       0       0       0       0       0       0       0       0       0       0       
      +0       0       0       0       0
  2847 ;;      Locals:         0       0       0       0       0       0       0       0       0       0       0       0       
      +0       0       0       0       0
  2848 ;;      Temps:          2       0       0       0       0       0       0       0       0       0       0       0       
      +0       0       0       0       0
  2849 ;;      Totals:         4       0       0       0       0       0       0       0       0       0       0       0       
      +0       0       0       0       0
  2850 ;;Total ram usage:        4 bytes
  2851 ;; Hardware stack levels used: 1
  2852 ;; Hardware stack levels required when called: 6
  2853 ;; This function calls:
  2854 ;;		Nothing
  2855 ;; This function is called by:
  2856 ;;		_EXT_INTX_Intialize
  2857 ;; This function uses a non-reentrant model
  2858 ;;
  2859                           
  2860                           	psect	text17
  2861   001C4A                     __ptext17:
  2862                           	callstack 0
  2863   001C4A                     _EXT_INTX_Clear_Flag:
  2864                           	callstack 23
  2865   001C4A                     
  2866                           ;MCAL_Layer/Interupt/mcal_external_interrupt.c: 248:     if(INT_X == ((void*)0)){
  2867   001C4A  5063               	movf	EXT_INTX_Clear_Flag@INT_X^0,w,c
  2868   001C4C  1064               	iorwf	(EXT_INTX_Clear_Flag@INT_X+1)^0,w,c
  2869   001C4E  A4D8               	btfss	status,2,c
  2870   001C50  EF2C  F00E         	goto	u2301
  2871   001C54  EF2E  F00E         	goto	u2300
  2872   001C58                     u2301:
  2873   001C58  EF39  F00E         	goto	l3446
  2874   001C5C                     u2300:
  2875   001C5C                     
  2876                           ;MCAL_Layer/Interupt/mcal_external_interrupt.c: 250:     }
  2877   001C5C  EF58  F00E         	goto	l3448
  2878   001C60                     l585:
  2879                           
  2880                           ;MCAL_Layer/Interupt/mcal_external_interrupt.c: 254:                 (INTCONbits.INT0IF 
      +                          = 0);
  2881   001C60  92F2               	bcf	242,1,c	;volatile
  2882                           
  2883                           ;MCAL_Layer/Interupt/mcal_external_interrupt.c: 255:                 break;
  2884   001C62  EF58  F00E         	goto	l3448
  2885   001C66                     l587:
  2886                           
  2887                           ;MCAL_Layer/Interupt/mcal_external_interrupt.c: 257:                 (INTCON3bits.INT1IF
      +                           = 0);
  2888   001C66  90F0               	bcf	240,0,c	;volatile
  2889                           
  2890                           ;MCAL_Layer/Interupt/mcal_external_interrupt.c: 258:                 break;
  2891   001C68  EF58  F00E         	goto	l3448
  2892   001C6C                     l588:
  2893                           
  2894                           ;MCAL_Layer/Interupt/mcal_external_interrupt.c: 260:                 (INTCON3bits.INT2IF
      +                           = 0);
  2895   001C6C  92F0               	bcf	240,1,c	;volatile
  2896                           
  2897                           ;MCAL_Layer/Interupt/mcal_external_interrupt.c: 261:                 break;
  2898   001C6E  EF58  F00E         	goto	l3448
  2899   001C72                     l3446:
  2900   001C72  EE20 F003          	lfsr	2,3
  2901   001C76  5063               	movf	EXT_INTX_Clear_Flag@INT_X^0,w,c
  2902   001C78  26D9               	addwf	fsr2l,f,c
  2903   001C7A  5064               	movf	(EXT_INTX_Clear_Flag@INT_X+1)^0,w,c
  2904   001C7C  22DA               	addwfc	fsr2h,f,c
  2905   001C7E  50DF               	movf	indf2,w,c
  2906   001C80  6E65               	movwf	??_EXT_INTX_Clear_Flag^0,c
  2907   001C82  6A66               	clrf	(??_EXT_INTX_Clear_Flag+1)^0,c
  2908                           
  2909                           ; Switch on 2 bytes has been partitioned into a top level switch of size 1, and 1 sub-sw
      +                          itches
  2910                           ; Switch size 1, requested type "simple"
  2911                           ; Number of cases is 1, Range of values is 0 to 0
  2912                           ; switch strategies available:
  2913                           ; Name         Instructions Cycles
  2914                           ; simple_byte            4     3 (average)
  2915                           ;	Chosen strategy is simple_byte
  2916   001C84  5066               	movf	(??_EXT_INTX_Clear_Flag+1)^0,w,c
  2917   001C86  0A00               	xorlw	0	; case 0
  2918   001C88  B4D8               	btfsc	status,2,c
  2919   001C8A  EF49  F00E         	goto	l5544
  2920   001C8E  EF58  F00E         	goto	l3448
  2921   001C92                     l5544:
  2922                           
  2923                           ; Switch size 1, requested type "simple"
  2924                           ; Number of cases is 3, Range of values is 0 to 2
  2925                           ; switch strategies available:
  2926                           ; Name         Instructions Cycles
  2927                           ; simple_byte           10     6 (average)
  2928                           ;	Chosen strategy is simple_byte
  2929   001C92  5065               	movf	??_EXT_INTX_Clear_Flag^0,w,c
  2930   001C94  0A00               	xorlw	0	; case 0
  2931   001C96  B4D8               	btfsc	status,2,c
  2932   001C98  EF30  F00E         	goto	l585
  2933   001C9C  0A01               	xorlw	1	; case 1
  2934   001C9E  B4D8               	btfsc	status,2,c
  2935   001CA0  EF33  F00E         	goto	l587
  2936   001CA4  0A03               	xorlw	3	; case 2
  2937   001CA6  B4D8               	btfsc	status,2,c
  2938   001CA8  EF36  F00E         	goto	l588
  2939   001CAC  EF58  F00E         	goto	l3448
  2940   001CB0                     l3448:
  2941                           
  2942                           ;MCAL_Layer/Interupt/mcal_external_interrupt.c: 265:     return ret;
  2943   001CB0  0E01               	movlw	1
  2944   001CB2  0012               	return		;funcret
  2945   001CB4                     __end_of_EXT_INTX_Clear_Flag:
  2946                           	callstack 0
  2947                           
  2948 ;; *************** function _EEPROM_READ_DATA *****************
  2949 ;; Defined at:
  2950 ;;		line 47 in file "MCAL_Layer/EEPROM/EEPROM.c"
  2951 ;; Parameters:    Size  Location     Type
  2952 ;;  address         2   12[COMRAM] unsigned short 
  2953 ;;  data            2   14[COMRAM] PTR unsigned char 
  2954 ;;		 -> program_number(1), 
  2955 ;; Auto vars:     Size  Location     Type
  2956 ;;  Interrupt_st    1   16[COMRAM] unsigned char 
  2957 ;;  ret             1    0        unsigned char 
  2958 ;; Return value:  Size  Location     Type
  2959 ;;                  1    wreg      unsigned char 
  2960 ;; Registers used:
  2961 ;;		wreg, fsr2l, fsr2h, status,2, status,0
  2962 ;; Tracked objects:
  2963 ;;		On entry : 0/0
  2964 ;;		On exit  : 0/0
  2965 ;;		Unchanged: 0/0
  2966 ;; Data sizes:     COMRAM   BANK0   BANK1   BANK2   BANK3   BANK4   BANK5   BANK6   BANK7   BANK8   BANK9  BANK10  BANK1
      +1  BANK12  BANK13  BANK14  BANK15
  2967 ;;      Params:         4       0       0       0       0       0       0       0       0       0       0       0       
      +0       0       0       0       0
  2968 ;;      Locals:         1       0       0       0       0       0       0       0       0       0       0       0       
      +0       0       0       0       0
  2969 ;;      Temps:          0       0       0       0       0       0       0       0       0       0       0       0       
      +0       0       0       0       0
  2970 ;;      Totals:         5       0       0       0       0       0       0       0       0       0       0       0       
      +0       0       0       0       0
  2971 ;;Total ram usage:        5 bytes
  2972 ;; Hardware stack levels used: 1
  2973 ;; Hardware stack levels required when called: 6
  2974 ;; This function calls:
  2975 ;;		Nothing
  2976 ;; This function is called by:
  2977 ;;		_main
  2978 ;; This function uses a non-reentrant model
  2979 ;;
  2980                           
  2981                           	psect	text18
  2982   001D1C                     __ptext18:
  2983                           	callstack 0
  2984   001D1C                     _EEPROM_READ_DATA:
  2985                           	callstack 24
  2986   001D1C                     
  2987                           ;MCAL_Layer/EEPROM/EEPROM.c: 49:     uint8 Interrupt_status = 0;
  2988   001D1C  0E00               	movlw	0
  2989   001D1E  6E67               	movwf	EEPROM_READ_DATA@Interrupt_status^0,c
  2990   001D20                     
  2991                           ;MCAL_Layer/EEPROM/EEPROM.c: 50:     if(((void*)0) == data){
  2992   001D20  5065               	movf	EEPROM_READ_DATA@data^0,w,c
  2993   001D22  1066               	iorwf	(EEPROM_READ_DATA@data+1)^0,w,c
  2994   001D24  A4D8               	btfss	status,2,c
  2995   001D26  EF97  F00E         	goto	u2771
  2996   001D2A  EF99  F00E         	goto	u2770
  2997   001D2E                     u2771:
  2998   001D2E  EF9B  F00E         	goto	l3804
  2999   001D32                     u2770:
  3000   001D32                     
  3001                           ;MCAL_Layer/EEPROM/EEPROM.c: 52:     }
  3002   001D32  EFB5  F00E         	goto	l3826
  3003   001D36                     l3804:
  3004                           
  3005                           ;MCAL_Layer/EEPROM/EEPROM.c: 55:         Interrupt_status = INTCONbits.GIE;
  3006   001D36  0E00               	movlw	0
  3007   001D38  BEF2               	btfsc	242,7,c	;volatile
  3008   001D3A  0E01               	movlw	1
  3009   001D3C  6E67               	movwf	EEPROM_READ_DATA@Interrupt_status^0,c
  3010   001D3E                     
  3011                           ;MCAL_Layer/EEPROM/EEPROM.c: 57:         EEADR = (uint8) (address & 0xFF);
  3012   001D3E  C063  FFA9         	movff	EEPROM_READ_DATA@address,4009	;volatile
  3013   001D42                     
  3014                           ;MCAL_Layer/EEPROM/EEPROM.c: 58:         EEADRH = (uint8) ((address >> 8) & 0x03);
  3015   001D42  5064               	movf	(EEPROM_READ_DATA@address+1)^0,w,c
  3016   001D44  0B03               	andlw	3
  3017   001D46  6EAA               	movwf	170,c	;volatile
  3018   001D48                     
  3019                           ;MCAL_Layer/EEPROM/EEPROM.c: 60:         EECON1bits.EEPGD = 0;
  3020   001D48  9EA6               	bcf	166,7,c	;volsfr
  3021   001D4A                     
  3022                           ;MCAL_Layer/EEPROM/EEPROM.c: 61:         EECON1bits.CFGS = 0;
  3023   001D4A  9CA6               	bcf	166,6,c	;volsfr
  3024   001D4C                     
  3025                           ;MCAL_Layer/EEPROM/EEPROM.c: 63:         (INTCONbits.GIE = 0);
  3026   001D4C  9EF2               	bcf	242,7,c	;volatile
  3027   001D4E                     
  3028                           ;MCAL_Layer/EEPROM/EEPROM.c: 65:         EECON1bits.RD = 1;
  3029   001D4E  80A6               	bsf	166,0,c	;volsfr
  3030   001D50                     
  3031                           ;MCAL_Layer/EEPROM/EEPROM.c: 67:         __nop();
  3032   001D50  F000               	nop	
  3033   001D52                     
  3034                           ;MCAL_Layer/EEPROM/EEPROM.c: 68:         __nop();
  3035   001D52  F000               	nop	
  3036   001D54                     
  3037                           ;MCAL_Layer/EEPROM/EEPROM.c: 70:         *data = EEDATA;
  3038   001D54  C065  FFD9         	movff	EEPROM_READ_DATA@data,fsr2l
  3039   001D58  C066  FFDA         	movff	EEPROM_READ_DATA@data+1,fsr2h
  3040   001D5C  CFA8 FFDF          	movff	4008,indf2	;volatile
  3041   001D60                     
  3042                           ;MCAL_Layer/EEPROM/EEPROM.c: 72:         INTCONbits.GIE = Interrupt_status;
  3043   001D60  B067               	btfsc	EEPROM_READ_DATA@Interrupt_status^0,0,c
  3044   001D62  D002               	bra	u2785
  3045   001D64  9EF2               	bcf	242,7,c	;volatile
  3046   001D66  D001               	bra	u2786
  3047   001D68                     u2785:
  3048   001D68  8EF2               	bsf	242,7,c	;volatile
  3049   001D6A                     u2786:
  3050   001D6A                     l3826:
  3051                           
  3052                           ;MCAL_Layer/EEPROM/EEPROM.c: 74:     return ret;
  3053   001D6A  0E01               	movlw	1
  3054   001D6C  0012               	return		;funcret
  3055   001D6E                     __end_of_EEPROM_READ_DATA:
  3056                           	callstack 0
  3057                           
  3058 ;; *************** function _LOW_PRIORITY_INTERRUPTS *****************
  3059 ;; Defined at:
  3060 ;;		line 97 in file "MCAL_Layer/Interupt/mcal_interrupt_manager.c"
  3061 ;; Parameters:    Size  Location     Type
  3062 ;;		None
  3063 ;; Auto vars:     Size  Location     Type
  3064 ;;		None
  3065 ;; Return value:  Size  Location     Type
  3066 ;;                  1    wreg      void 
  3067 ;; Registers used:
  3068 ;;		wreg, status,2, status,0, cstack
  3069 ;; Tracked objects:
  3070 ;;		On entry : 0/0
  3071 ;;		On exit  : 0/0
  3072 ;;		Unchanged: 0/0
  3073 ;; Data sizes:     COMRAM   BANK0   BANK1   BANK2   BANK3   BANK4   BANK5   BANK6   BANK7   BANK8   BANK9  BANK10  BANK1
      +1  BANK12  BANK13  BANK14  BANK15
  3074 ;;      Params:         0       0       0       0       0       0       0       0       0       0       0       0       
      +0       0       0       0       0
  3075 ;;      Locals:         0       0       0       0       0       0       0       0       0       0       0       0       
      +0       0       0       0       0
  3076 ;;      Temps:          3       0       0       0       0       0       0       0       0       0       0       0       
      +0       0       0       0       0
  3077 ;;      Totals:         3       0       0       0       0       0       0       0       0       0       0       0       
      +0       0       0       0       0
  3078 ;;Total ram usage:        3 bytes
  3079 ;; Hardware stack levels used: 1
  3080 ;; Hardware stack levels required when called: 5
  3081 ;; This function calls:
  3082 ;;		_RB7_ISR
  3083 ;; This function is called by:
  3084 ;;		Interrupt level 1
  3085 ;; This function uses a non-reentrant model
  3086 ;;
  3087                           
  3088                           	psect	intcodelo
  3089   000018                     __pintcodelo:
  3090                           	callstack 0
  3091   000018                     _LOW_PRIORITY_INTERRUPTS:
  3092                           	callstack 22
  3093                           
  3094                           ;incstack = 0
  3095   000018  8073               	bsf	int$flags,0,c	;set compiler interrupt flag (level 1)
  3096   00001A  CFD8 F060          	movff	status,??_LOW_PRIORITY_INTERRUPTS
  3097   00001E  CFE8 F061          	movff	wreg,??_LOW_PRIORITY_INTERRUPTS+1
  3098   000022  CFE0 F062          	movff	bsr,??_LOW_PRIORITY_INTERRUPTS+2
  3099   000026                     
  3100                           ;MCAL_Layer/Interupt/mcal_interrupt_manager.c: 99:     if((1 == INTCONbits.RBIE) && (1 =
      +                          = INTCONbits.RBIF) &&
  3101   000026  A6F2               	btfss	242,3,c	;volatile
  3102   000028  EF18  F000         	goto	i1u198_21
  3103   00002C  EF1A  F000         	goto	i1u198_20
  3104   000030                     i1u198_21:
  3105   000030  EF35  F000         	goto	i1l853
  3106   000034                     i1u198_20:
  3107   000034  A0F2               	btfss	242,0,c	;volatile
  3108   000036  EF1F  F000         	goto	i1u199_21
  3109   00003A  EF21  F000         	goto	i1u199_20
  3110   00003E                     i1u199_21:
  3111   00003E  EF35  F000         	goto	i1l853
  3112   000042                     i1u199_20:
  3113   000042  AE81               	btfss	129,7,c	;volatile
  3114   000044  EF26  F000         	goto	i1u200_21
  3115   000048  EF28  F000         	goto	i1u200_20
  3116   00004C                     i1u200_21:
  3117   00004C  EF35  F000         	goto	i1l853
  3118   000050                     i1u200_20:
  3119   000050  042D               	decf	_RB7_Flag^0,w,c	;volatile
  3120   000052  A4D8               	btfss	status,2,c
  3121   000054  EF2E  F000         	goto	i1u201_21
  3122   000058  EF30  F000         	goto	i1u201_20
  3123   00005C                     i1u201_21:
  3124   00005C  EF35  F000         	goto	i1l853
  3125   000060                     i1u201_20:
  3126   000060                     
  3127                           ;MCAL_Layer/Interupt/mcal_interrupt_manager.c: 100:        (PORTBbits.RB7 == GPIO_HIGH) 
      +                          && (RB7_Flag == 1)){;MCAL_Layer/Interupt/mcal_interrupt_manager.c: 101:         RB7_Flag
      +                           = 0;
  3128   000060  0E00               	movlw	0
  3129   000062  6E2D               	movwf	_RB7_Flag^0,c	;volatile
  3130   000064                     
  3131                           ;MCAL_Layer/Interupt/mcal_interrupt_manager.c: 102:         RB7_ISR(0);
  3132   000064  0E00               	movlw	0
  3133   000066  ECF7  F00E         	call	_RB7_ISR
  3134   00006A                     i1l853:
  3135                           
  3136                           ;MCAL_Layer/Interupt/mcal_interrupt_manager.c: 106:     if((1 == INTCONbits.RBIE) && (1 
      +                          == INTCONbits.RBIF) &&
  3137   00006A  A6F2               	btfss	242,3,c	;volatile
  3138   00006C  EF3A  F000         	goto	i1u202_21
  3139   000070  EF3C  F000         	goto	i1u202_20
  3140   000074                     i1u202_21:
  3141   000074  EF57  F000         	goto	i1l856
  3142   000078                     i1u202_20:
  3143   000078  A0F2               	btfss	242,0,c	;volatile
  3144   00007A  EF41  F000         	goto	i1u203_21
  3145   00007E  EF43  F000         	goto	i1u203_20
  3146   000082                     i1u203_21:
  3147   000082  EF57  F000         	goto	i1l856
  3148   000086                     i1u203_20:
  3149   000086  BE81               	btfsc	129,7,c	;volatile
  3150   000088  EF48  F000         	goto	i1u204_21
  3151   00008C  EF4A  F000         	goto	i1u204_20
  3152   000090                     i1u204_21:
  3153   000090  EF57  F000         	goto	i1l856
  3154   000094                     i1u204_20:
  3155   000094  502D               	movf	_RB7_Flag^0,w,c	;volatile
  3156   000096  A4D8               	btfss	status,2,c
  3157   000098  EF50  F000         	goto	i1u205_21
  3158   00009C  EF52  F000         	goto	i1u205_20
  3159   0000A0                     i1u205_21:
  3160   0000A0  EF57  F000         	goto	i1l856
  3161   0000A4                     i1u205_20:
  3162   0000A4                     
  3163                           ;MCAL_Layer/Interupt/mcal_interrupt_manager.c: 107:        (PORTBbits.RB7 == GPIO_LOW) &
      +                          & (RB7_Flag == 0)){;MCAL_Layer/Interupt/mcal_interrupt_manager.c: 108:         RB7_Flag 
      +                          = 1;
  3164   0000A4  0E01               	movlw	1
  3165   0000A6  6E2D               	movwf	_RB7_Flag^0,c	;volatile
  3166   0000A8                     
  3167                           ;MCAL_Layer/Interupt/mcal_interrupt_manager.c: 109:         RB7_ISR(1);
  3168   0000A8  0E01               	movlw	1
  3169   0000AA  ECF7  F00E         	call	_RB7_ISR
  3170   0000AE                     i1l856:
  3171   0000AE  C062  FFE0         	movff	??_LOW_PRIORITY_INTERRUPTS+2,bsr
  3172   0000B2  C061  FFE8         	movff	??_LOW_PRIORITY_INTERRUPTS+1,wreg
  3173   0000B6  C060  FFD8         	movff	??_LOW_PRIORITY_INTERRUPTS,status
  3174   0000BA  9073               	bcf	int$flags,0,c	;clear compiler interrupt flag (level 1)
  3175   0000BC  0010               	retfie	
  3176   0000BE                     __end_of_LOW_PRIORITY_INTERRUPTS:
  3177                           	callstack 0
  3178                           
  3179 ;; *************** function _RB7_ISR *****************
  3180 ;; Defined at:
  3181 ;;		line 552 in file "MCAL_Layer/Interupt/mcal_external_interrupt.c"
  3182 ;; Parameters:    Size  Location     Type
  3183 ;;  FUNC_DETECTI    1    wreg     unsigned char 
  3184 ;; Auto vars:     Size  Location     Type
  3185 ;;  FUNC_DETECTI    1    8[COMRAM] unsigned char 
  3186 ;; Return value:  Size  Location     Type
  3187 ;;                  1    wreg      void 
  3188 ;; Registers used:
  3189 ;;		wreg, status,2, status,0
  3190 ;; Tracked objects:
  3191 ;;		On entry : 0/0
  3192 ;;		On exit  : 0/0
  3193 ;;		Unchanged: 0/0
  3194 ;; Data sizes:     COMRAM   BANK0   BANK1   BANK2   BANK3   BANK4   BANK5   BANK6   BANK7   BANK8   BANK9  BANK10  BANK1
      +1  BANK12  BANK13  BANK14  BANK15
  3195 ;;      Params:         0       0       0       0       0       0       0       0       0       0       0       0       
      +0       0       0       0       0
  3196 ;;      Locals:         1       0       0       0       0       0       0       0       0       0       0       0       
      +0       0       0       0       0
  3197 ;;      Temps:          2       0       0       0       0       0       0       0       0       0       0       0       
      +0       0       0       0       0
  3198 ;;      Totals:         3       0       0       0       0       0       0       0       0       0       0       0       
      +0       0       0       0       0
  3199 ;;Total ram usage:        3 bytes
  3200 ;; Hardware stack levels used: 1
  3201 ;; Hardware stack levels required when called: 4
  3202 ;; This function calls:
  3203 ;;		Nothing
  3204 ;; This function is called by:
  3205 ;;		_LOW_PRIORITY_INTERRUPTS
  3206 ;; This function uses a non-reentrant model
  3207 ;;
  3208                           
  3209                           	psect	text20
  3210   001DEE                     __ptext20:
  3211                           	callstack 0
  3212   001DEE                     _RB7_ISR:
  3213                           	callstack 22
  3214                           
  3215                           ;incstack = 0
  3216                           ;RB7_ISR@FUNC_DETECTION stored from wreg
  3217   001DEE  6E5F               	movwf	RB7_ISR@FUNC_DETECTION^0,c
  3218   001DF0                     
  3219                           ;MCAL_Layer/Interupt/mcal_external_interrupt.c: 553:     (INTCONbits.RBIF = 0);
  3220   001DF0  90F2               	bcf	242,0,c	;volatile
  3221                           
  3222                           ;MCAL_Layer/Interupt/mcal_external_interrupt.c: 554:     switch(FUNC_DETECTION){
  3223   001DF2  EFFD  F00E         	goto	i1l2218
  3224   001DF6                     i1l2210:
  3225   001DF6  EF12  F00F         	goto	i1l720
  3226   001DFA                     i1l2218:
  3227   001DFA  505F               	movf	RB7_ISR@FUNC_DETECTION^0,w,c
  3228   001DFC  6E5D               	movwf	??_RB7_ISR^0,c
  3229   001DFE  6A5E               	clrf	(??_RB7_ISR+1)^0,c
  3230                           
  3231                           ; Switch on 2 bytes has been partitioned into a top level switch of size 1, and 1 sub-sw
      +                          itches
  3232                           ; Switch size 1, requested type "simple"
  3233                           ; Number of cases is 1, Range of values is 0 to 0
  3234                           ; switch strategies available:
  3235                           ; Name         Instructions Cycles
  3236                           ; simple_byte            4     3 (average)
  3237                           ;	Chosen strategy is simple_byte
  3238   001E00  505E               	movf	(??_RB7_ISR+1)^0,w,c
  3239   001E02  0A00               	xorlw	0	; case 0
  3240   001E04  B4D8               	btfsc	status,2,c
  3241   001E06  EF07  F00F         	goto	i1l5546
  3242   001E0A  EF12  F00F         	goto	i1l720
  3243   001E0E                     i1l5546:
  3244                           
  3245                           ; Switch size 1, requested type "simple"
  3246                           ; Number of cases is 2, Range of values is 0 to 1
  3247                           ; switch strategies available:
  3248                           ; Name         Instructions Cycles
  3249                           ; simple_byte            7     4 (average)
  3250                           ;	Chosen strategy is simple_byte
  3251   001E0E  505D               	movf	??_RB7_ISR^0,w,c
  3252   001E10  0A00               	xorlw	0	; case 0
  3253   001E12  B4D8               	btfsc	status,2,c
  3254   001E14  EFFB  F00E         	goto	i1l2210
  3255   001E18  0A01               	xorlw	1	; case 1
  3256   001E1A  B4D8               	btfsc	status,2,c
  3257   001E1C  EFFB  F00E         	goto	i1l2210
  3258   001E20  EF12  F00F         	goto	i1l720
  3259   001E24                     i1l720:
  3260   001E24  0012               	return		;funcret
  3261   001E26                     __end_of_RB7_ISR:
  3262                           	callstack 0
  3263                           
  3264 ;; *************** function _InterruptManagerHigh *****************
  3265 ;; Defined at:
  3266 ;;		line 14 in file "MCAL_Layer/Interupt/mcal_interrupt_manager.c"
  3267 ;; Parameters:    Size  Location     Type
  3268 ;;		None
  3269 ;; Auto vars:     Size  Location     Type
  3270 ;;		None
  3271 ;; Return value:  Size  Location     Type
  3272 ;;                  1    wreg      void 
  3273 ;; Registers used:
  3274 ;;		wreg, status,2, status,0, pcl, pclath, pclatu, tosl, cstack
  3275 ;; Tracked objects:
  3276 ;;		On entry : 0/0
  3277 ;;		On exit  : 0/0
  3278 ;;		Unchanged: 0/0
  3279 ;; Data sizes:     COMRAM   BANK0   BANK1   BANK2   BANK3   BANK4   BANK5   BANK6   BANK7   BANK8   BANK9  BANK10  BANK1
      +1  BANK12  BANK13  BANK14  BANK15
  3280 ;;      Params:         0       0       0       0       0       0       0       0       0       0       0       0       
      +0       0       0       0       0
  3281 ;;      Locals:         0       0       0       0       0       0       0       0       0       0       0       0       
      +0       0       0       0       0
  3282 ;;      Temps:          2       0       0       0       0       0       0       0       0       0       0       0       
      +0       0       0       0       0
  3283 ;;      Totals:         2       0       0       0       0       0       0       0       0       0       0       0       
      +0       0       0       0       0
  3284 ;;Total ram usage:        2 bytes
  3285 ;; Hardware stack levels used: 1
  3286 ;; Hardware stack levels required when called: 3
  3287 ;; This function calls:
  3288 ;;		_INT0_ISR
  3289 ;;		_INT1_ISR
  3290 ;;		_INT2_ISR
  3291 ;;		_RB4_ISR
  3292 ;;		_RB5_ISR
  3293 ;;		_RB6_ISR
  3294 ;;		i2_RB7_ISR
  3295 ;; This function is called by:
  3296 ;;		Interrupt level 2
  3297 ;; This function uses a non-reentrant model
  3298 ;;
  3299                           
  3300                           	psect	intcode
  3301   000008                     __pintcode:
  3302                           	callstack 0
  3303   000008                     _InterruptManagerHigh:
  3304                           	callstack 22
  3305                           
  3306                           ;incstack = 0
  3307   000008  8273               	bsf	int$flags,1,c	;set compiler interrupt flag (level 2)
  3308   00000A  ED0C  F008         	call	int_func,f	;refresh shadow registers
  3309                           
  3310                           	psect	intcode_body
  3311   001018                     __pintcode_body:
  3312                           	callstack 22
  3313   001018                     int_func:
  3314                           	callstack 22
  3315   001018  0006               	pop		; remove dummy address from shadow register refresh
  3316   00101A  CFFA F05B          	movff	pclath,??_InterruptManagerHigh
  3317   00101E  CFFB F05C          	movff	pclatu,??_InterruptManagerHigh+1
  3318   001022                     
  3319                           ;MCAL_Layer/Interupt/mcal_interrupt_manager.c: 18:     if((1 == INTCONbits.INT0IE) && (1
      +                           == INTCONbits.INT0IF)){
  3320   001022  A8F2               	btfss	242,4,c	;volatile
  3321   001024  EF16  F008         	goto	i2u323_41
  3322   001028  EF18  F008         	goto	i2u323_40
  3323   00102C                     i2u323_41:
  3324   00102C  EF21  F008         	goto	i2l826
  3325   001030                     i2u323_40:
  3326   001030  A2F2               	btfss	242,1,c	;volatile
  3327   001032  EF1D  F008         	goto	i2u324_41
  3328   001036  EF1F  F008         	goto	i2u324_40
  3329   00103A                     i2u324_41:
  3330   00103A  EF21  F008         	goto	i2l826
  3331   00103E                     i2u324_40:
  3332   00103E                     
  3333                           ;MCAL_Layer/Interupt/mcal_interrupt_manager.c: 19:         INT0_ISR();
  3334   00103E  ECE4  F00F         	call	_INT0_ISR	;wreg free
  3335   001042                     i2l826:
  3336                           
  3337                           ;MCAL_Layer/Interupt/mcal_interrupt_manager.c: 23:     if((1 == INTCON3bits.INT1IE) && (
      +                          1 == INTCON3bits.INT1IF)){
  3338   001042  A6F0               	btfss	240,3,c	;volatile
  3339   001044  EF26  F008         	goto	i2u325_41
  3340   001048  EF28  F008         	goto	i2u325_40
  3341   00104C                     i2u325_41:
  3342   00104C  EF31  F008         	goto	i2l828
  3343   001050                     i2u325_40:
  3344   001050  A0F0               	btfss	240,0,c	;volatile
  3345   001052  EF2D  F008         	goto	i2u326_41
  3346   001056  EF2F  F008         	goto	i2u326_40
  3347   00105A                     i2u326_41:
  3348   00105A  EF31  F008         	goto	i2l828
  3349   00105E                     i2u326_40:
  3350   00105E                     
  3351                           ;MCAL_Layer/Interupt/mcal_interrupt_manager.c: 24:         INT1_ISR();
  3352   00105E  ECCD  F00F         	call	_INT1_ISR	;wreg free
  3353   001062                     i2l828:
  3354                           
  3355                           ;MCAL_Layer/Interupt/mcal_interrupt_manager.c: 28:     if((1 == INTCON3bits.INT2IE) && (
      +                          1 == INTCON3bits.INT2IF)){
  3356   001062  A8F0               	btfss	240,4,c	;volatile
  3357   001064  EF36  F008         	goto	i2u327_41
  3358   001068  EF38  F008         	goto	i2u327_40
  3359   00106C                     i2u327_41:
  3360   00106C  EF41  F008         	goto	i2l830
  3361   001070                     i2u327_40:
  3362   001070  A2F0               	btfss	240,1,c	;volatile
  3363   001072  EF3D  F008         	goto	i2u328_41
  3364   001076  EF3F  F008         	goto	i2u328_40
  3365   00107A                     i2u328_41:
  3366   00107A  EF41  F008         	goto	i2l830
  3367   00107E                     i2u328_40:
  3368   00107E                     
  3369                           ;MCAL_Layer/Interupt/mcal_interrupt_manager.c: 29:         INT2_ISR();
  3370   00107E  ECB6  F00F         	call	_INT2_ISR	;wreg free
  3371   001082                     i2l830:
  3372                           
  3373                           ;MCAL_Layer/Interupt/mcal_interrupt_manager.c: 36:     if((1 == INTCONbits.RBIE) && (1 =
      +                          = INTCONbits.RBIF) &&
  3374   001082  A6F2               	btfss	242,3,c	;volatile
  3375   001084  EF46  F008         	goto	i2u329_41
  3376   001088  EF48  F008         	goto	i2u329_40
  3377   00108C                     i2u329_41:
  3378   00108C  EF63  F008         	goto	i2l832
  3379   001090                     i2u329_40:
  3380   001090  A0F2               	btfss	242,0,c	;volatile
  3381   001092  EF4D  F008         	goto	i2u330_41
  3382   001096  EF4F  F008         	goto	i2u330_40
  3383   00109A                     i2u330_41:
  3384   00109A  EF63  F008         	goto	i2l832
  3385   00109E                     i2u330_40:
  3386   00109E  A881               	btfss	129,4,c	;volatile
  3387   0010A0  EF54  F008         	goto	i2u331_41
  3388   0010A4  EF56  F008         	goto	i2u331_40
  3389   0010A8                     i2u331_41:
  3390   0010A8  EF63  F008         	goto	i2l832
  3391   0010AC                     i2u331_40:
  3392   0010AC  0430               	decf	_RB4_Flag^0,w,c	;volatile
  3393   0010AE  A4D8               	btfss	status,2,c
  3394   0010B0  EF5C  F008         	goto	i2u332_41
  3395   0010B4  EF5E  F008         	goto	i2u332_40
  3396   0010B8                     i2u332_41:
  3397   0010B8  EF63  F008         	goto	i2l832
  3398   0010BC                     i2u332_40:
  3399   0010BC                     
  3400                           ;MCAL_Layer/Interupt/mcal_interrupt_manager.c: 37:        (PORTBbits.RB4 == GPIO_HIGH) &
      +                          & (RB4_Flag == 1)){;MCAL_Layer/Interupt/mcal_interrupt_manager.c: 38:         RB4_Flag =
      +                           0;
  3401   0010BC  0E00               	movlw	0
  3402   0010BE  6E30               	movwf	_RB4_Flag^0,c	;volatile
  3403   0010C0                     
  3404                           ;MCAL_Layer/Interupt/mcal_interrupt_manager.c: 39:         RB4_ISR(0);
  3405   0010C0  0E00               	movlw	0
  3406   0010C2  EC67  F00F         	call	_RB4_ISR
  3407   0010C6                     i2l832:
  3408                           
  3409                           ;MCAL_Layer/Interupt/mcal_interrupt_manager.c: 43:     if((1 == INTCONbits.RBIE) && (1 =
      +                          = INTCONbits.RBIF) &&
  3410   0010C6  A6F2               	btfss	242,3,c	;volatile
  3411   0010C8  EF68  F008         	goto	i2u333_41
  3412   0010CC  EF6A  F008         	goto	i2u333_40
  3413   0010D0                     i2u333_41:
  3414   0010D0  EF85  F008         	goto	i2l834
  3415   0010D4                     i2u333_40:
  3416   0010D4  A0F2               	btfss	242,0,c	;volatile
  3417   0010D6  EF6F  F008         	goto	i2u334_41
  3418   0010DA  EF71  F008         	goto	i2u334_40
  3419   0010DE                     i2u334_41:
  3420   0010DE  EF85  F008         	goto	i2l834
  3421   0010E2                     i2u334_40:
  3422   0010E2  B881               	btfsc	129,4,c	;volatile
  3423   0010E4  EF76  F008         	goto	i2u335_41
  3424   0010E8  EF78  F008         	goto	i2u335_40
  3425   0010EC                     i2u335_41:
  3426   0010EC  EF85  F008         	goto	i2l834
  3427   0010F0                     i2u335_40:
  3428   0010F0  5030               	movf	_RB4_Flag^0,w,c	;volatile
  3429   0010F2  A4D8               	btfss	status,2,c
  3430   0010F4  EF7E  F008         	goto	i2u336_41
  3431   0010F8  EF80  F008         	goto	i2u336_40
  3432   0010FC                     i2u336_41:
  3433   0010FC  EF85  F008         	goto	i2l834
  3434   001100                     i2u336_40:
  3435   001100                     
  3436                           ;MCAL_Layer/Interupt/mcal_interrupt_manager.c: 44:        (PORTBbits.RB4 == GPIO_LOW) &&
      +                           (RB4_Flag == 0)){;MCAL_Layer/Interupt/mcal_interrupt_manager.c: 45:         RB4_Flag = 
      +                          1;
  3437   001100  0E01               	movlw	1
  3438   001102  6E30               	movwf	_RB4_Flag^0,c	;volatile
  3439   001104                     
  3440                           ;MCAL_Layer/Interupt/mcal_interrupt_manager.c: 46:         RB4_ISR(1);
  3441   001104  0E01               	movlw	1
  3442   001106  EC67  F00F         	call	_RB4_ISR
  3443   00110A                     i2l834:
  3444                           
  3445                           ;MCAL_Layer/Interupt/mcal_interrupt_manager.c: 50:     if((1 == INTCONbits.RBIE) && (1 =
      +                          = INTCONbits.RBIF) &&
  3446   00110A  A6F2               	btfss	242,3,c	;volatile
  3447   00110C  EF8A  F008         	goto	i2u337_41
  3448   001110  EF8C  F008         	goto	i2u337_40
  3449   001114                     i2u337_41:
  3450   001114  EFA7  F008         	goto	i2l836
  3451   001118                     i2u337_40:
  3452   001118  A0F2               	btfss	242,0,c	;volatile
  3453   00111A  EF91  F008         	goto	i2u338_41
  3454   00111E  EF93  F008         	goto	i2u338_40
  3455   001122                     i2u338_41:
  3456   001122  EFA7  F008         	goto	i2l836
  3457   001126                     i2u338_40:
  3458   001126  AA81               	btfss	129,5,c	;volatile
  3459   001128  EF98  F008         	goto	i2u339_41
  3460   00112C  EF9A  F008         	goto	i2u339_40
  3461   001130                     i2u339_41:
  3462   001130  EFA7  F008         	goto	i2l836
  3463   001134                     i2u339_40:
  3464   001134  042F               	decf	_RB5_Flag^0,w,c	;volatile
  3465   001136  A4D8               	btfss	status,2,c
  3466   001138  EFA0  F008         	goto	i2u340_41
  3467   00113C  EFA2  F008         	goto	i2u340_40
  3468   001140                     i2u340_41:
  3469   001140  EFA7  F008         	goto	i2l836
  3470   001144                     i2u340_40:
  3471   001144                     
  3472                           ;MCAL_Layer/Interupt/mcal_interrupt_manager.c: 51:        (PORTBbits.RB5 == GPIO_HIGH) &
      +                          & (RB5_Flag == 1)){;MCAL_Layer/Interupt/mcal_interrupt_manager.c: 52:         RB5_Flag =
      +                           0;
  3473   001144  0E00               	movlw	0
  3474   001146  6E2F               	movwf	_RB5_Flag^0,c	;volatile
  3475   001148                     
  3476                           ;MCAL_Layer/Interupt/mcal_interrupt_manager.c: 53:         RB5_ISR(0);
  3477   001148  0E00               	movlw	0
  3478   00114A  EC4B  F00F         	call	_RB5_ISR
  3479   00114E                     i2l836:
  3480                           
  3481                           ;MCAL_Layer/Interupt/mcal_interrupt_manager.c: 57:     if((1 == INTCONbits.RBIE) && (1 =
      +                          = INTCONbits.RBIF) &&
  3482   00114E  A6F2               	btfss	242,3,c	;volatile
  3483   001150  EFAC  F008         	goto	i2u341_41
  3484   001154  EFAE  F008         	goto	i2u341_40
  3485   001158                     i2u341_41:
  3486   001158  EFC9  F008         	goto	i2l838
  3487   00115C                     i2u341_40:
  3488   00115C  A0F2               	btfss	242,0,c	;volatile
  3489   00115E  EFB3  F008         	goto	i2u342_41
  3490   001162  EFB5  F008         	goto	i2u342_40
  3491   001166                     i2u342_41:
  3492   001166  EFC9  F008         	goto	i2l838
  3493   00116A                     i2u342_40:
  3494   00116A  BA81               	btfsc	129,5,c	;volatile
  3495   00116C  EFBA  F008         	goto	i2u343_41
  3496   001170  EFBC  F008         	goto	i2u343_40
  3497   001174                     i2u343_41:
  3498   001174  EFC9  F008         	goto	i2l838
  3499   001178                     i2u343_40:
  3500   001178  502F               	movf	_RB5_Flag^0,w,c	;volatile
  3501   00117A  A4D8               	btfss	status,2,c
  3502   00117C  EFC2  F008         	goto	i2u344_41
  3503   001180  EFC4  F008         	goto	i2u344_40
  3504   001184                     i2u344_41:
  3505   001184  EFC9  F008         	goto	i2l838
  3506   001188                     i2u344_40:
  3507   001188                     
  3508                           ;MCAL_Layer/Interupt/mcal_interrupt_manager.c: 58:        (PORTBbits.RB5 == GPIO_LOW) &&
      +                           (RB5_Flag == 0)){;MCAL_Layer/Interupt/mcal_interrupt_manager.c: 59:         RB5_Flag = 
      +                          1;
  3509   001188  0E01               	movlw	1
  3510   00118A  6E2F               	movwf	_RB5_Flag^0,c	;volatile
  3511   00118C                     
  3512                           ;MCAL_Layer/Interupt/mcal_interrupt_manager.c: 60:         RB5_ISR(1);
  3513   00118C  0E01               	movlw	1
  3514   00118E  EC4B  F00F         	call	_RB5_ISR
  3515   001192                     i2l838:
  3516                           
  3517                           ;MCAL_Layer/Interupt/mcal_interrupt_manager.c: 64:     if((1 == INTCONbits.RBIE) && (1 =
      +                          = INTCONbits.RBIF) &&
  3518   001192  A6F2               	btfss	242,3,c	;volatile
  3519   001194  EFCE  F008         	goto	i2u345_41
  3520   001198  EFD0  F008         	goto	i2u345_40
  3521   00119C                     i2u345_41:
  3522   00119C  EFEB  F008         	goto	i2l840
  3523   0011A0                     i2u345_40:
  3524   0011A0  A0F2               	btfss	242,0,c	;volatile
  3525   0011A2  EFD5  F008         	goto	i2u346_41
  3526   0011A6  EFD7  F008         	goto	i2u346_40
  3527   0011AA                     i2u346_41:
  3528   0011AA  EFEB  F008         	goto	i2l840
  3529   0011AE                     i2u346_40:
  3530   0011AE  AC81               	btfss	129,6,c	;volatile
  3531   0011B0  EFDC  F008         	goto	i2u347_41
  3532   0011B4  EFDE  F008         	goto	i2u347_40
  3533   0011B8                     i2u347_41:
  3534   0011B8  EFEB  F008         	goto	i2l840
  3535   0011BC                     i2u347_40:
  3536   0011BC  042E               	decf	_RB6_Flag^0,w,c	;volatile
  3537   0011BE  A4D8               	btfss	status,2,c
  3538   0011C0  EFE4  F008         	goto	i2u348_41
  3539   0011C4  EFE6  F008         	goto	i2u348_40
  3540   0011C8                     i2u348_41:
  3541   0011C8  EFEB  F008         	goto	i2l840
  3542   0011CC                     i2u348_40:
  3543   0011CC                     
  3544                           ;MCAL_Layer/Interupt/mcal_interrupt_manager.c: 65:        (PORTBbits.RB6 == GPIO_HIGH) &
      +                          & (RB6_Flag == 1)){;MCAL_Layer/Interupt/mcal_interrupt_manager.c: 66:         RB6_Flag =
      +                           0;
  3545   0011CC  0E00               	movlw	0
  3546   0011CE  6E2E               	movwf	_RB6_Flag^0,c	;volatile
  3547   0011D0                     
  3548                           ;MCAL_Layer/Interupt/mcal_interrupt_manager.c: 67:         RB6_ISR(0);
  3549   0011D0  0E00               	movlw	0
  3550   0011D2  EC2F  F00F         	call	_RB6_ISR
  3551   0011D6                     i2l840:
  3552                           
  3553                           ;MCAL_Layer/Interupt/mcal_interrupt_manager.c: 71:     if((1 == INTCONbits.RBIE) && (1 =
      +                          = INTCONbits.RBIF) &&
  3554   0011D6  A6F2               	btfss	242,3,c	;volatile
  3555   0011D8  EFF0  F008         	goto	i2u349_41
  3556   0011DC  EFF2  F008         	goto	i2u349_40
  3557   0011E0                     i2u349_41:
  3558   0011E0  EF0D  F009         	goto	i2l842
  3559   0011E4                     i2u349_40:
  3560   0011E4  A0F2               	btfss	242,0,c	;volatile
  3561   0011E6  EFF7  F008         	goto	i2u350_41
  3562   0011EA  EFF9  F008         	goto	i2u350_40
  3563   0011EE                     i2u350_41:
  3564   0011EE  EF0D  F009         	goto	i2l842
  3565   0011F2                     i2u350_40:
  3566   0011F2  BC81               	btfsc	129,6,c	;volatile
  3567   0011F4  EFFE  F008         	goto	i2u351_41
  3568   0011F8  EF00  F009         	goto	i2u351_40
  3569   0011FC                     i2u351_41:
  3570   0011FC  EF0D  F009         	goto	i2l842
  3571   001200                     i2u351_40:
  3572   001200  502E               	movf	_RB6_Flag^0,w,c	;volatile
  3573   001202  A4D8               	btfss	status,2,c
  3574   001204  EF06  F009         	goto	i2u352_41
  3575   001208  EF08  F009         	goto	i2u352_40
  3576   00120C                     i2u352_41:
  3577   00120C  EF0D  F009         	goto	i2l842
  3578   001210                     i2u352_40:
  3579   001210                     
  3580                           ;MCAL_Layer/Interupt/mcal_interrupt_manager.c: 72:        (PORTBbits.RB6 == GPIO_LOW) &&
      +                           (RB6_Flag == 0)){;MCAL_Layer/Interupt/mcal_interrupt_manager.c: 73:         RB6_Flag = 
      +                          1;
  3581   001210  0E01               	movlw	1
  3582   001212  6E2E               	movwf	_RB6_Flag^0,c	;volatile
  3583   001214                     
  3584                           ;MCAL_Layer/Interupt/mcal_interrupt_manager.c: 74:         RB6_ISR(1);
  3585   001214  0E01               	movlw	1
  3586   001216  EC2F  F00F         	call	_RB6_ISR
  3587   00121A                     i2l842:
  3588                           
  3589                           ;MCAL_Layer/Interupt/mcal_interrupt_manager.c: 78:     if((1 == INTCONbits.RBIE) && (1 =
      +                          = INTCONbits.RBIF) &&
  3590   00121A  A6F2               	btfss	242,3,c	;volatile
  3591   00121C  EF12  F009         	goto	i2u353_41
  3592   001220  EF14  F009         	goto	i2u353_40
  3593   001224                     i2u353_41:
  3594   001224  EF2F  F009         	goto	i2l844
  3595   001228                     i2u353_40:
  3596   001228  A0F2               	btfss	242,0,c	;volatile
  3597   00122A  EF19  F009         	goto	i2u354_41
  3598   00122E  EF1B  F009         	goto	i2u354_40
  3599   001232                     i2u354_41:
  3600   001232  EF2F  F009         	goto	i2l844
  3601   001236                     i2u354_40:
  3602   001236  AE81               	btfss	129,7,c	;volatile
  3603   001238  EF20  F009         	goto	i2u355_41
  3604   00123C  EF22  F009         	goto	i2u355_40
  3605   001240                     i2u355_41:
  3606   001240  EF2F  F009         	goto	i2l844
  3607   001244                     i2u355_40:
  3608   001244  042D               	decf	_RB7_Flag^0,w,c	;volatile
  3609   001246  A4D8               	btfss	status,2,c
  3610   001248  EF28  F009         	goto	i2u356_41
  3611   00124C  EF2A  F009         	goto	i2u356_40
  3612   001250                     i2u356_41:
  3613   001250  EF2F  F009         	goto	i2l844
  3614   001254                     i2u356_40:
  3615   001254                     
  3616                           ;MCAL_Layer/Interupt/mcal_interrupt_manager.c: 79:        (PORTBbits.RB7 == GPIO_HIGH) &
      +                          & (RB7_Flag == 1)){;MCAL_Layer/Interupt/mcal_interrupt_manager.c: 80:         RB7_Flag =
      +                           0;
  3617   001254  0E00               	movlw	0
  3618   001256  6E2D               	movwf	_RB7_Flag^0,c	;volatile
  3619   001258                     
  3620                           ;MCAL_Layer/Interupt/mcal_interrupt_manager.c: 81:         RB7_ISR(0);
  3621   001258  0E00               	movlw	0
  3622   00125A  EC13  F00F         	call	i2_RB7_ISR
  3623   00125E                     i2l844:
  3624                           
  3625                           ;MCAL_Layer/Interupt/mcal_interrupt_manager.c: 85:     if((1 == INTCONbits.RBIE) && (1 =
      +                          = INTCONbits.RBIF) &&
  3626   00125E  A6F2               	btfss	242,3,c	;volatile
  3627   001260  EF34  F009         	goto	i2u357_41
  3628   001264  EF36  F009         	goto	i2u357_40
  3629   001268                     i2u357_41:
  3630   001268  EF51  F009         	goto	i2l847
  3631   00126C                     i2u357_40:
  3632   00126C  A0F2               	btfss	242,0,c	;volatile
  3633   00126E  EF3B  F009         	goto	i2u358_41
  3634   001272  EF3D  F009         	goto	i2u358_40
  3635   001276                     i2u358_41:
  3636   001276  EF51  F009         	goto	i2l847
  3637   00127A                     i2u358_40:
  3638   00127A  BE81               	btfsc	129,7,c	;volatile
  3639   00127C  EF42  F009         	goto	i2u359_41
  3640   001280  EF44  F009         	goto	i2u359_40
  3641   001284                     i2u359_41:
  3642   001284  EF51  F009         	goto	i2l847
  3643   001288                     i2u359_40:
  3644   001288  502D               	movf	_RB7_Flag^0,w,c	;volatile
  3645   00128A  A4D8               	btfss	status,2,c
  3646   00128C  EF4A  F009         	goto	i2u360_41
  3647   001290  EF4C  F009         	goto	i2u360_40
  3648   001294                     i2u360_41:
  3649   001294  EF51  F009         	goto	i2l847
  3650   001298                     i2u360_40:
  3651   001298                     
  3652                           ;MCAL_Layer/Interupt/mcal_interrupt_manager.c: 86:        (PORTBbits.RB7 == GPIO_LOW) &&
      +                           (RB7_Flag == 0)){;MCAL_Layer/Interupt/mcal_interrupt_manager.c: 87:         RB7_Flag = 
      +                          1;
  3653   001298  0E01               	movlw	1
  3654   00129A  6E2D               	movwf	_RB7_Flag^0,c	;volatile
  3655   00129C                     
  3656                           ;MCAL_Layer/Interupt/mcal_interrupt_manager.c: 88:         RB7_ISR(1);
  3657   00129C  0E01               	movlw	1
  3658   00129E  EC13  F00F         	call	i2_RB7_ISR
  3659   0012A2                     i2l847:
  3660   0012A2  C05C  FFFB         	movff	??_InterruptManagerHigh+1,pclatu
  3661   0012A6  C05B  FFFA         	movff	??_InterruptManagerHigh,pclath
  3662   0012AA  9273               	bcf	int$flags,1,c	;clear compiler interrupt flag (level 2)
  3663   0012AC  0011               	retfie		f
  3664   0012AE                     __end_of_InterruptManagerHigh:
  3665                           	callstack 0
  3666                           
  3667 ;; *************** function i2_RB7_ISR *****************
  3668 ;; Defined at:
  3669 ;;		line 552 in file "MCAL_Layer/Interupt/mcal_external_interrupt.c"
  3670 ;; Parameters:    Size  Location     Type
  3671 ;;  FUNC_DETECTI    1    wreg     unsigned char 
  3672 ;; Auto vars:     Size  Location     Type
  3673 ;;  FUNC_DETECTI    1    2[COMRAM] unsigned char 
  3674 ;; Return value:  Size  Location     Type
  3675 ;;                  1    wreg      void 
  3676 ;; Registers used:
  3677 ;;		wreg, status,2, status,0
  3678 ;; Tracked objects:
  3679 ;;		On entry : 0/0
  3680 ;;		On exit  : 0/0
  3681 ;;		Unchanged: 0/0
  3682 ;; Data sizes:     COMRAM   BANK0   BANK1   BANK2   BANK3   BANK4   BANK5   BANK6   BANK7   BANK8   BANK9  BANK10  BANK1
      +1  BANK12  BANK13  BANK14  BANK15
  3683 ;;      Params:         0       0       0       0       0       0       0       0       0       0       0       0       
      +0       0       0       0       0
  3684 ;;      Locals:         1       0       0       0       0       0       0       0       0       0       0       0       
      +0       0       0       0       0
  3685 ;;      Temps:          2       0       0       0       0       0       0       0       0       0       0       0       
      +0       0       0       0       0
  3686 ;;      Totals:         3       0       0       0       0       0       0       0       0       0       0       0       
      +0       0       0       0       0
  3687 ;;Total ram usage:        3 bytes
  3688 ;; Hardware stack levels used: 1
  3689 ;; This function calls:
  3690 ;;		Nothing
  3691 ;; This function is called by:
  3692 ;;		_InterruptManagerHigh
  3693 ;; This function uses a non-reentrant model
  3694 ;;
  3695                           
  3696                           	psect	text22
  3697   001E26                     __ptext22:
  3698                           	callstack 0
  3699   001E26                     i2_RB7_ISR:
  3700                           	callstack 24
  3701                           
  3702                           ;incstack = 0
  3703                           ;i2RB7_ISR@FUNC_DETECTION stored from wreg
  3704   001E26  6E59               	movwf	i2RB7_ISR@FUNC_DETECTION^0,c
  3705   001E28                     
  3706                           ;MCAL_Layer/Interupt/mcal_external_interrupt.c: 553:     (INTCONbits.RBIF = 0);
  3707   001E28  90F2               	bcf	242,0,c	;volatile
  3708                           
  3709                           ;MCAL_Layer/Interupt/mcal_external_interrupt.c: 554:     switch(FUNC_DETECTION){
  3710   001E2A  EF19  F00F         	goto	i2l3840
  3711   001E2E                     i2l3832:
  3712   001E2E  EF2E  F00F         	goto	i2l720
  3713   001E32                     i2l3840:
  3714   001E32  5059               	movf	i2RB7_ISR@FUNC_DETECTION^0,w,c
  3715   001E34  6E57               	movwf	??i2_RB7_ISR^0,c
  3716   001E36  6A58               	clrf	(??i2_RB7_ISR+1)^0,c
  3717                           
  3718                           ; Switch on 2 bytes has been partitioned into a top level switch of size 1, and 1 sub-sw
      +                          itches
  3719                           ; Switch size 1, requested type "simple"
  3720                           ; Number of cases is 1, Range of values is 0 to 0
  3721                           ; switch strategies available:
  3722                           ; Name         Instructions Cycles
  3723                           ; simple_byte            4     3 (average)
  3724                           ;	Chosen strategy is simple_byte
  3725   001E38  5058               	movf	(??i2_RB7_ISR+1)^0,w,c
  3726   001E3A  0A00               	xorlw	0	; case 0
  3727   001E3C  B4D8               	btfsc	status,2,c
  3728   001E3E  EF23  F00F         	goto	i2l5548
  3729   001E42  EF2E  F00F         	goto	i2l720
  3730   001E46                     i2l5548:
  3731                           
  3732                           ; Switch size 1, requested type "simple"
  3733                           ; Number of cases is 2, Range of values is 0 to 1
  3734                           ; switch strategies available:
  3735                           ; Name         Instructions Cycles
  3736                           ; simple_byte            7     4 (average)
  3737                           ;	Chosen strategy is simple_byte
  3738   001E46  5057               	movf	??i2_RB7_ISR^0,w,c
  3739   001E48  0A00               	xorlw	0	; case 0
  3740   001E4A  B4D8               	btfsc	status,2,c
  3741   001E4C  EF17  F00F         	goto	i2l3832
  3742   001E50  0A01               	xorlw	1	; case 1
  3743   001E52  B4D8               	btfsc	status,2,c
  3744   001E54  EF17  F00F         	goto	i2l3832
  3745   001E58  EF2E  F00F         	goto	i2l720
  3746   001E5C                     i2l720:
  3747   001E5C  0012               	return		;funcret
  3748   001E5E                     __end_ofi2_RB7_ISR:
  3749                           	callstack 0
  3750                           
  3751 ;; *************** function _RB6_ISR *****************
  3752 ;; Defined at:
  3753 ;;		line 529 in file "MCAL_Layer/Interupt/mcal_external_interrupt.c"
  3754 ;; Parameters:    Size  Location     Type
  3755 ;;  FUNC_DETECTI    1    wreg     unsigned char 
  3756 ;; Auto vars:     Size  Location     Type
  3757 ;;  FUNC_DETECTI    1    2[COMRAM] unsigned char 
  3758 ;; Return value:  Size  Location     Type
  3759 ;;                  1    wreg      void 
  3760 ;; Registers used:
  3761 ;;		wreg, status,2, status,0
  3762 ;; Tracked objects:
  3763 ;;		On entry : 0/0
  3764 ;;		On exit  : 0/0
  3765 ;;		Unchanged: 0/0
  3766 ;; Data sizes:     COMRAM   BANK0   BANK1   BANK2   BANK3   BANK4   BANK5   BANK6   BANK7   BANK8   BANK9  BANK10  BANK1
      +1  BANK12  BANK13  BANK14  BANK15
  3767 ;;      Params:         0       0       0       0       0       0       0       0       0       0       0       0       
      +0       0       0       0       0
  3768 ;;      Locals:         1       0       0       0       0       0       0       0       0       0       0       0       
      +0       0       0       0       0
  3769 ;;      Temps:          2       0       0       0       0       0       0       0       0       0       0       0       
      +0       0       0       0       0
  3770 ;;      Totals:         3       0       0       0       0       0       0       0       0       0       0       0       
      +0       0       0       0       0
  3771 ;;Total ram usage:        3 bytes
  3772 ;; Hardware stack levels used: 1
  3773 ;; This function calls:
  3774 ;;		Nothing
  3775 ;; This function is called by:
  3776 ;;		_InterruptManagerHigh
  3777 ;; This function uses a non-reentrant model
  3778 ;;
  3779                           
  3780                           	psect	text23
  3781   001E5E                     __ptext23:
  3782                           	callstack 0
  3783   001E5E                     _RB6_ISR:
  3784                           	callstack 24
  3785                           
  3786                           ;incstack = 0
  3787                           ;RB6_ISR@FUNC_DETECTION stored from wreg
  3788   001E5E  6E59               	movwf	RB6_ISR@FUNC_DETECTION^0,c
  3789   001E60                     
  3790                           ;MCAL_Layer/Interupt/mcal_external_interrupt.c: 530:     (INTCONbits.RBIF = 0);
  3791   001E60  90F2               	bcf	242,0,c	;volatile
  3792                           
  3793                           ;MCAL_Layer/Interupt/mcal_external_interrupt.c: 531:     switch(FUNC_DETECTION){
  3794   001E62  EF35  F00F         	goto	i2l2202
  3795   001E66                     i2l2194:
  3796   001E66  EF4A  F00F         	goto	i2l708
  3797   001E6A                     i2l2202:
  3798   001E6A  5059               	movf	RB6_ISR@FUNC_DETECTION^0,w,c
  3799   001E6C  6E57               	movwf	??_RB6_ISR^0,c
  3800   001E6E  6A58               	clrf	(??_RB6_ISR+1)^0,c
  3801                           
  3802                           ; Switch on 2 bytes has been partitioned into a top level switch of size 1, and 1 sub-sw
      +                          itches
  3803                           ; Switch size 1, requested type "simple"
  3804                           ; Number of cases is 1, Range of values is 0 to 0
  3805                           ; switch strategies available:
  3806                           ; Name         Instructions Cycles
  3807                           ; simple_byte            4     3 (average)
  3808                           ;	Chosen strategy is simple_byte
  3809   001E70  5058               	movf	(??_RB6_ISR+1)^0,w,c
  3810   001E72  0A00               	xorlw	0	; case 0
  3811   001E74  B4D8               	btfsc	status,2,c
  3812   001E76  EF3F  F00F         	goto	i2l5550
  3813   001E7A  EF4A  F00F         	goto	i2l708
  3814   001E7E                     i2l5550:
  3815                           
  3816                           ; Switch size 1, requested type "simple"
  3817                           ; Number of cases is 2, Range of values is 0 to 1
  3818                           ; switch strategies available:
  3819                           ; Name         Instructions Cycles
  3820                           ; simple_byte            7     4 (average)
  3821                           ;	Chosen strategy is simple_byte
  3822   001E7E  5057               	movf	??_RB6_ISR^0,w,c
  3823   001E80  0A00               	xorlw	0	; case 0
  3824   001E82  B4D8               	btfsc	status,2,c
  3825   001E84  EF33  F00F         	goto	i2l2194
  3826   001E88  0A01               	xorlw	1	; case 1
  3827   001E8A  B4D8               	btfsc	status,2,c
  3828   001E8C  EF33  F00F         	goto	i2l2194
  3829   001E90  EF4A  F00F         	goto	i2l708
  3830   001E94                     i2l708:
  3831   001E94  0012               	return		;funcret
  3832   001E96                     __end_of_RB6_ISR:
  3833                           	callstack 0
  3834                           
  3835 ;; *************** function _RB5_ISR *****************
  3836 ;; Defined at:
  3837 ;;		line 506 in file "MCAL_Layer/Interupt/mcal_external_interrupt.c"
  3838 ;; Parameters:    Size  Location     Type
  3839 ;;  FUNC_DETECTI    1    wreg     unsigned char 
  3840 ;; Auto vars:     Size  Location     Type
  3841 ;;  FUNC_DETECTI    1    2[COMRAM] unsigned char 
  3842 ;; Return value:  Size  Location     Type
  3843 ;;                  1    wreg      void 
  3844 ;; Registers used:
  3845 ;;		wreg, status,2, status,0
  3846 ;; Tracked objects:
  3847 ;;		On entry : 0/0
  3848 ;;		On exit  : 0/0
  3849 ;;		Unchanged: 0/0
  3850 ;; Data sizes:     COMRAM   BANK0   BANK1   BANK2   BANK3   BANK4   BANK5   BANK6   BANK7   BANK8   BANK9  BANK10  BANK1
      +1  BANK12  BANK13  BANK14  BANK15
  3851 ;;      Params:         0       0       0       0       0       0       0       0       0       0       0       0       
      +0       0       0       0       0
  3852 ;;      Locals:         1       0       0       0       0       0       0       0       0       0       0       0       
      +0       0       0       0       0
  3853 ;;      Temps:          2       0       0       0       0       0       0       0       0       0       0       0       
      +0       0       0       0       0
  3854 ;;      Totals:         3       0       0       0       0       0       0       0       0       0       0       0       
      +0       0       0       0       0
  3855 ;;Total ram usage:        3 bytes
  3856 ;; Hardware stack levels used: 1
  3857 ;; This function calls:
  3858 ;;		Nothing
  3859 ;; This function is called by:
  3860 ;;		_InterruptManagerHigh
  3861 ;; This function uses a non-reentrant model
  3862 ;;
  3863                           
  3864                           	psect	text24
  3865   001E96                     __ptext24:
  3866                           	callstack 0
  3867   001E96                     _RB5_ISR:
  3868                           	callstack 24
  3869                           
  3870                           ;incstack = 0
  3871                           ;RB5_ISR@FUNC_DETECTION stored from wreg
  3872   001E96  6E59               	movwf	RB5_ISR@FUNC_DETECTION^0,c
  3873   001E98                     
  3874                           ;MCAL_Layer/Interupt/mcal_external_interrupt.c: 507:     (INTCONbits.RBIF = 0);
  3875   001E98  90F2               	bcf	242,0,c	;volatile
  3876                           
  3877                           ;MCAL_Layer/Interupt/mcal_external_interrupt.c: 508:     switch(FUNC_DETECTION){
  3878   001E9A  EF51  F00F         	goto	i2l2186
  3879   001E9E                     i2l2178:
  3880   001E9E  EF66  F00F         	goto	i2l696
  3881   001EA2                     i2l2186:
  3882   001EA2  5059               	movf	RB5_ISR@FUNC_DETECTION^0,w,c
  3883   001EA4  6E57               	movwf	??_RB5_ISR^0,c
  3884   001EA6  6A58               	clrf	(??_RB5_ISR+1)^0,c
  3885                           
  3886                           ; Switch on 2 bytes has been partitioned into a top level switch of size 1, and 1 sub-sw
      +                          itches
  3887                           ; Switch size 1, requested type "simple"
  3888                           ; Number of cases is 1, Range of values is 0 to 0
  3889                           ; switch strategies available:
  3890                           ; Name         Instructions Cycles
  3891                           ; simple_byte            4     3 (average)
  3892                           ;	Chosen strategy is simple_byte
  3893   001EA8  5058               	movf	(??_RB5_ISR+1)^0,w,c
  3894   001EAA  0A00               	xorlw	0	; case 0
  3895   001EAC  B4D8               	btfsc	status,2,c
  3896   001EAE  EF5B  F00F         	goto	i2l5552
  3897   001EB2  EF66  F00F         	goto	i2l696
  3898   001EB6                     i2l5552:
  3899                           
  3900                           ; Switch size 1, requested type "simple"
  3901                           ; Number of cases is 2, Range of values is 0 to 1
  3902                           ; switch strategies available:
  3903                           ; Name         Instructions Cycles
  3904                           ; simple_byte            7     4 (average)
  3905                           ;	Chosen strategy is simple_byte
  3906   001EB6  5057               	movf	??_RB5_ISR^0,w,c
  3907   001EB8  0A00               	xorlw	0	; case 0
  3908   001EBA  B4D8               	btfsc	status,2,c
  3909   001EBC  EF4F  F00F         	goto	i2l2178
  3910   001EC0  0A01               	xorlw	1	; case 1
  3911   001EC2  B4D8               	btfsc	status,2,c
  3912   001EC4  EF4F  F00F         	goto	i2l2178
  3913   001EC8  EF66  F00F         	goto	i2l696
  3914   001ECC                     i2l696:
  3915   001ECC  0012               	return		;funcret
  3916   001ECE                     __end_of_RB5_ISR:
  3917                           	callstack 0
  3918                           
  3919 ;; *************** function _RB4_ISR *****************
  3920 ;; Defined at:
  3921 ;;		line 483 in file "MCAL_Layer/Interupt/mcal_external_interrupt.c"
  3922 ;; Parameters:    Size  Location     Type
  3923 ;;  FUNC_DETECTI    1    wreg     unsigned char 
  3924 ;; Auto vars:     Size  Location     Type
  3925 ;;  FUNC_DETECTI    1    2[COMRAM] unsigned char 
  3926 ;; Return value:  Size  Location     Type
  3927 ;;                  1    wreg      void 
  3928 ;; Registers used:
  3929 ;;		wreg, status,2, status,0
  3930 ;; Tracked objects:
  3931 ;;		On entry : 0/0
  3932 ;;		On exit  : 0/0
  3933 ;;		Unchanged: 0/0
  3934 ;; Data sizes:     COMRAM   BANK0   BANK1   BANK2   BANK3   BANK4   BANK5   BANK6   BANK7   BANK8   BANK9  BANK10  BANK1
      +1  BANK12  BANK13  BANK14  BANK15
  3935 ;;      Params:         0       0       0       0       0       0       0       0       0       0       0       0       
      +0       0       0       0       0
  3936 ;;      Locals:         1       0       0       0       0       0       0       0       0       0       0       0       
      +0       0       0       0       0
  3937 ;;      Temps:          2       0       0       0       0       0       0       0       0       0       0       0       
      +0       0       0       0       0
  3938 ;;      Totals:         3       0       0       0       0       0       0       0       0       0       0       0       
      +0       0       0       0       0
  3939 ;;Total ram usage:        3 bytes
  3940 ;; Hardware stack levels used: 1
  3941 ;; This function calls:
  3942 ;;		Nothing
  3943 ;; This function is called by:
  3944 ;;		_InterruptManagerHigh
  3945 ;; This function uses a non-reentrant model
  3946 ;;
  3947                           
  3948                           	psect	text25
  3949   001ECE                     __ptext25:
  3950                           	callstack 0
  3951   001ECE                     _RB4_ISR:
  3952                           	callstack 24
  3953                           
  3954                           ;incstack = 0
  3955                           ;RB4_ISR@FUNC_DETECTION stored from wreg
  3956   001ECE  6E59               	movwf	RB4_ISR@FUNC_DETECTION^0,c
  3957   001ED0                     
  3958                           ;MCAL_Layer/Interupt/mcal_external_interrupt.c: 484:     (INTCONbits.RBIF = 0);
  3959   001ED0  90F2               	bcf	242,0,c	;volatile
  3960                           
  3961                           ;MCAL_Layer/Interupt/mcal_external_interrupt.c: 485:     switch(FUNC_DETECTION){
  3962   001ED2  EF6D  F00F         	goto	i2l2170
  3963   001ED6                     i2l2162:
  3964   001ED6  EF82  F00F         	goto	i2l684
  3965   001EDA                     i2l2170:
  3966   001EDA  5059               	movf	RB4_ISR@FUNC_DETECTION^0,w,c
  3967   001EDC  6E57               	movwf	??_RB4_ISR^0,c
  3968   001EDE  6A58               	clrf	(??_RB4_ISR+1)^0,c
  3969                           
  3970                           ; Switch on 2 bytes has been partitioned into a top level switch of size 1, and 1 sub-sw
      +                          itches
  3971                           ; Switch size 1, requested type "simple"
  3972                           ; Number of cases is 1, Range of values is 0 to 0
  3973                           ; switch strategies available:
  3974                           ; Name         Instructions Cycles
  3975                           ; simple_byte            4     3 (average)
  3976                           ;	Chosen strategy is simple_byte
  3977   001EE0  5058               	movf	(??_RB4_ISR+1)^0,w,c
  3978   001EE2  0A00               	xorlw	0	; case 0
  3979   001EE4  B4D8               	btfsc	status,2,c
  3980   001EE6  EF77  F00F         	goto	i2l5554
  3981   001EEA  EF82  F00F         	goto	i2l684
  3982   001EEE                     i2l5554:
  3983                           
  3984                           ; Switch size 1, requested type "simple"
  3985                           ; Number of cases is 2, Range of values is 0 to 1
  3986                           ; switch strategies available:
  3987                           ; Name         Instructions Cycles
  3988                           ; simple_byte            7     4 (average)
  3989                           ;	Chosen strategy is simple_byte
  3990   001EEE  5057               	movf	??_RB4_ISR^0,w,c
  3991   001EF0  0A00               	xorlw	0	; case 0
  3992   001EF2  B4D8               	btfsc	status,2,c
  3993   001EF4  EF6B  F00F         	goto	i2l2162
  3994   001EF8  0A01               	xorlw	1	; case 1
  3995   001EFA  B4D8               	btfsc	status,2,c
  3996   001EFC  EF6B  F00F         	goto	i2l2162
  3997   001F00  EF82  F00F         	goto	i2l684
  3998   001F04                     i2l684:
  3999   001F04  0012               	return		;funcret
  4000   001F06                     __end_of_RB4_ISR:
  4001                           	callstack 0
  4002                           
  4003 ;; *************** function _INT2_ISR *****************
  4004 ;; Defined at:
  4005 ;;		line 136 in file "MCAL_Layer/Interupt/mcal_external_interrupt.c"
  4006 ;; Parameters:    Size  Location     Type
  4007 ;;		None
  4008 ;; Auto vars:     Size  Location     Type
  4009 ;;		None
  4010 ;; Return value:  Size  Location     Type
  4011 ;;                  1    wreg      void 
  4012 ;; Registers used:
  4013 ;;		wreg, status,2, status,0, pcl, pclath, pclatu, tosl, cstack
  4014 ;; Tracked objects:
  4015 ;;		On entry : 0/0
  4016 ;;		On exit  : 0/0
  4017 ;;		Unchanged: 0/0
  4018 ;; Data sizes:     COMRAM   BANK0   BANK1   BANK2   BANK3   BANK4   BANK5   BANK6   BANK7   BANK8   BANK9  BANK10  BANK1
      +1  BANK12  BANK13  BANK14  BANK15
  4019 ;;      Params:         0       0       0       0       0       0       0       0       0       0       0       0       
      +0       0       0       0       0
  4020 ;;      Locals:         0       0       0       0       0       0       0       0       0       0       0       0       
      +0       0       0       0       0
  4021 ;;      Temps:          0       0       0       0       0       0       0       0       0       0       0       0       
      +0       0       0       0       0
  4022 ;;      Totals:         0       0       0       0       0       0       0       0       0       0       0       0       
      +0       0       0       0       0
  4023 ;;Total ram usage:        0 bytes
  4024 ;; Hardware stack levels used: 1
  4025 ;; Hardware stack levels required when called: 2
  4026 ;; This function calls:
  4027 ;;		NULL
  4028 ;;		_INTERRUPT_FUNC_0
  4029 ;; This function is called by:
  4030 ;;		_InterruptManagerHigh
  4031 ;; This function uses a non-reentrant model
  4032 ;;
  4033                           
  4034                           	psect	text26
  4035   001F6C                     __ptext26:
  4036                           	callstack 0
  4037   001F6C                     _INT2_ISR:
  4038                           	callstack 22
  4039   001F6C                     
  4040                           ;MCAL_Layer/Interupt/mcal_external_interrupt.c: 137:     (INTCON3bits.INT2IF = 0);
  4041   001F6C  92F0               	bcf	240,1,c	;volatile
  4042   001F6E                     
  4043                           ;MCAL_Layer/Interupt/mcal_external_interrupt.c: 138:     if(INT2_InterruptHandler){
  4044   001F6E  5049               	movf	_INT2_InterruptHandler^0,w,c
  4045   001F70  104A               	iorwf	(_INT2_InterruptHandler+1)^0,w,c
  4046   001F72  B4D8               	btfsc	status,2,c
  4047   001F74  EFBE  F00F         	goto	i2u275_41
  4048   001F78  EFC0  F00F         	goto	i2u275_40
  4049   001F7C                     i2u275_41:
  4050   001F7C  EFCC  F00F         	goto	i2l549
  4051   001F80                     i2u275_40:
  4052   001F80                     
  4053                           ;MCAL_Layer/Interupt/mcal_external_interrupt.c: 139:         INT2_InterruptHandler();
  4054   001F80  D802               	call	i2u276_48
  4055   001F82  EFCC  F00F         	goto	i2u276_49
  4056   001F86                     i2u276_48:
  4057   001F86  0005               	push	
  4058   001F88  6EFA               	movwf	pclath,c
  4059   001F8A  5049               	movf	_INT2_InterruptHandler^0,w,c
  4060   001F8C  6EFD               	movwf	tosl,c
  4061   001F8E  504A               	movf	(_INT2_InterruptHandler+1)^0,w,c
  4062   001F90  6EFE               	movwf	tosh,c
  4063   001F92  6AFF               	clrf	tosu,c
  4064   001F94  50FA               	movf	pclath,w,c
  4065   001F96  0012               	return		;indir
  4066   001F98                     i2u276_49:
  4067   001F98                     i2l549:
  4068   001F98  0012               	return		;funcret
  4069   001F9A                     __end_of_INT2_ISR:
  4070                           	callstack 0
  4071                           
  4072 ;; *************** function _INT1_ISR *****************
  4073 ;; Defined at:
  4074 ;;		line 126 in file "MCAL_Layer/Interupt/mcal_external_interrupt.c"
  4075 ;; Parameters:    Size  Location     Type
  4076 ;;		None
  4077 ;; Auto vars:     Size  Location     Type
  4078 ;;		None
  4079 ;; Return value:  Size  Location     Type
  4080 ;;                  1    wreg      void 
  4081 ;; Registers used:
  4082 ;;		wreg, status,2, status,0, pcl, pclath, pclatu, tosl, cstack
  4083 ;; Tracked objects:
  4084 ;;		On entry : 0/0
  4085 ;;		On exit  : 0/0
  4086 ;;		Unchanged: 0/0
  4087 ;; Data sizes:     COMRAM   BANK0   BANK1   BANK2   BANK3   BANK4   BANK5   BANK6   BANK7   BANK8   BANK9  BANK10  BANK1
      +1  BANK12  BANK13  BANK14  BANK15
  4088 ;;      Params:         0       0       0       0       0       0       0       0       0       0       0       0       
      +0       0       0       0       0
  4089 ;;      Locals:         0       0       0       0       0       0       0       0       0       0       0       0       
      +0       0       0       0       0
  4090 ;;      Temps:          0       0       0       0       0       0       0       0       0       0       0       0       
      +0       0       0       0       0
  4091 ;;      Totals:         0       0       0       0       0       0       0       0       0       0       0       0       
      +0       0       0       0       0
  4092 ;;Total ram usage:        0 bytes
  4093 ;; Hardware stack levels used: 1
  4094 ;; Hardware stack levels required when called: 2
  4095 ;; This function calls:
  4096 ;;		NULL
  4097 ;;		_INTERRUPT_FUNC_0
  4098 ;; This function is called by:
  4099 ;;		_InterruptManagerHigh
  4100 ;; This function uses a non-reentrant model
  4101 ;;
  4102                           
  4103                           	psect	text27
  4104   001F9A                     __ptext27:
  4105                           	callstack 0
  4106   001F9A                     _INT1_ISR:
  4107                           	callstack 22
  4108   001F9A                     
  4109                           ;MCAL_Layer/Interupt/mcal_external_interrupt.c: 127:     (INTCON3bits.INT1IF = 0);
  4110   001F9A  90F0               	bcf	240,0,c	;volatile
  4111   001F9C                     
  4112                           ;MCAL_Layer/Interupt/mcal_external_interrupt.c: 128:     if(INT1_InterruptHandler){
  4113   001F9C  504B               	movf	_INT1_InterruptHandler^0,w,c
  4114   001F9E  104C               	iorwf	(_INT1_InterruptHandler+1)^0,w,c
  4115   001FA0  B4D8               	btfsc	status,2,c
  4116   001FA2  EFD5  F00F         	goto	i2u273_41
  4117   001FA6  EFD7  F00F         	goto	i2u273_40
  4118   001FAA                     i2u273_41:
  4119   001FAA  EFE3  F00F         	goto	i2l544
  4120   001FAE                     i2u273_40:
  4121   001FAE                     
  4122                           ;MCAL_Layer/Interupt/mcal_external_interrupt.c: 129:         INT1_InterruptHandler();
  4123   001FAE  D802               	call	i2u274_48
  4124   001FB0  EFE3  F00F         	goto	i2u274_49
  4125   001FB4                     i2u274_48:
  4126   001FB4  0005               	push	
  4127   001FB6  6EFA               	movwf	pclath,c
  4128   001FB8  504B               	movf	_INT1_InterruptHandler^0,w,c
  4129   001FBA  6EFD               	movwf	tosl,c
  4130   001FBC  504C               	movf	(_INT1_InterruptHandler+1)^0,w,c
  4131   001FBE  6EFE               	movwf	tosh,c
  4132   001FC0  6AFF               	clrf	tosu,c
  4133   001FC2  50FA               	movf	pclath,w,c
  4134   001FC4  0012               	return		;indir
  4135   001FC6                     i2u274_49:
  4136   001FC6                     i2l544:
  4137   001FC6  0012               	return		;funcret
  4138   001FC8                     __end_of_INT1_ISR:
  4139                           	callstack 0
  4140                           
  4141 ;; *************** function _INT0_ISR *****************
  4142 ;; Defined at:
  4143 ;;		line 116 in file "MCAL_Layer/Interupt/mcal_external_interrupt.c"
  4144 ;; Parameters:    Size  Location     Type
  4145 ;;		None
  4146 ;; Auto vars:     Size  Location     Type
  4147 ;;		None
  4148 ;; Return value:  Size  Location     Type
  4149 ;;                  1    wreg      void 
  4150 ;; Registers used:
  4151 ;;		wreg, status,2, status,0, pcl, pclath, pclatu, tosl, cstack
  4152 ;; Tracked objects:
  4153 ;;		On entry : 0/0
  4154 ;;		On exit  : 0/0
  4155 ;;		Unchanged: 0/0
  4156 ;; Data sizes:     COMRAM   BANK0   BANK1   BANK2   BANK3   BANK4   BANK5   BANK6   BANK7   BANK8   BANK9  BANK10  BANK1
      +1  BANK12  BANK13  BANK14  BANK15
  4157 ;;      Params:         0       0       0       0       0       0       0       0       0       0       0       0       
      +0       0       0       0       0
  4158 ;;      Locals:         0       0       0       0       0       0       0       0       0       0       0       0       
      +0       0       0       0       0
  4159 ;;      Temps:          0       0       0       0       0       0       0       0       0       0       0       0       
      +0       0       0       0       0
  4160 ;;      Totals:         0       0       0       0       0       0       0       0       0       0       0       0       
      +0       0       0       0       0
  4161 ;;Total ram usage:        0 bytes
  4162 ;; Hardware stack levels used: 1
  4163 ;; Hardware stack levels required when called: 2
  4164 ;; This function calls:
  4165 ;;		NULL
  4166 ;;		_INTERRUPT_FUNC_0
  4167 ;; This function is called by:
  4168 ;;		_InterruptManagerHigh
  4169 ;; This function uses a non-reentrant model
  4170 ;;
  4171                           
  4172                           	psect	text28
  4173   001FC8                     __ptext28:
  4174                           	callstack 0
  4175   001FC8                     _INT0_ISR:
  4176                           	callstack 22
  4177   001FC8                     
  4178                           ;MCAL_Layer/Interupt/mcal_external_interrupt.c: 117:     (INTCONbits.INT0IF = 0);
  4179   001FC8  92F2               	bcf	242,1,c	;volatile
  4180   001FCA                     
  4181                           ;MCAL_Layer/Interupt/mcal_external_interrupt.c: 118:     if(INT0_InterruptHandler){
  4182   001FCA  504D               	movf	_INT0_InterruptHandler^0,w,c
  4183   001FCC  104E               	iorwf	(_INT0_InterruptHandler+1)^0,w,c
  4184   001FCE  B4D8               	btfsc	status,2,c
  4185   001FD0  EFEC  F00F         	goto	i2u271_41
  4186   001FD4  EFEE  F00F         	goto	i2u271_40
  4187   001FD8                     i2u271_41:
  4188   001FD8  EFFA  F00F         	goto	i2l539
  4189   001FDC                     i2u271_40:
  4190   001FDC                     
  4191                           ;MCAL_Layer/Interupt/mcal_external_interrupt.c: 119:         INT0_InterruptHandler();
  4192   001FDC  D802               	call	i2u272_48
  4193   001FDE  EFFA  F00F         	goto	i2u272_49
  4194   001FE2                     i2u272_48:
  4195   001FE2  0005               	push	
  4196   001FE4  6EFA               	movwf	pclath,c
  4197   001FE6  504D               	movf	_INT0_InterruptHandler^0,w,c
  4198   001FE8  6EFD               	movwf	tosl,c
  4199   001FEA  504E               	movf	(_INT0_InterruptHandler+1)^0,w,c
  4200   001FEC  6EFE               	movwf	tosh,c
  4201   001FEE  6AFF               	clrf	tosu,c
  4202   001FF0  50FA               	movf	pclath,w,c
  4203   001FF2  0012               	return		;indir
  4204   001FF4                     i2u272_49:
  4205   001FF4                     i2l539:
  4206   001FF4  0012               	return		;funcret
  4207   001FF6                     __end_of_INT0_ISR:
  4208                           	callstack 0
  4209                           
  4210 ;; *************** function _INTERRUPT_FUNC_0 *****************
  4211 ;; Defined at:
  4212 ;;		line 25 in file "Application.c"
  4213 ;; Parameters:    Size  Location     Type
  4214 ;;		None
  4215 ;; Auto vars:     Size  Location     Type
  4216 ;;		None
  4217 ;; Return value:  Size  Location     Type
  4218 ;;                  1    wreg      void 
  4219 ;; Registers used:
  4220 ;;		wreg, status,2, status,0, cstack
  4221 ;; Tracked objects:
  4222 ;;		On entry : 0/0
  4223 ;;		On exit  : 0/0
  4224 ;;		Unchanged: 0/0
  4225 ;; Data sizes:     COMRAM   BANK0   BANK1   BANK2   BANK3   BANK4   BANK5   BANK6   BANK7   BANK8   BANK9  BANK10  BANK1
      +1  BANK12  BANK13  BANK14  BANK15
  4226 ;;      Params:         0       0       0       0       0       0       0       0       0       0       0       0       
      +0       0       0       0       0
  4227 ;;      Locals:         0       0       0       0       0       0       0       0       0       0       0       0       
      +0       0       0       0       0
  4228 ;;      Temps:          0       0       0       0       0       0       0       0       0       0       0       0       
      +0       0       0       0       0
  4229 ;;      Totals:         0       0       0       0       0       0       0       0       0       0       0       0       
      +0       0       0       0       0
  4230 ;;Total ram usage:        0 bytes
  4231 ;; Hardware stack levels used: 1
  4232 ;; Hardware stack levels required when called: 1
  4233 ;; This function calls:
  4234 ;;		_EEPROM_WRITE_DATA
  4235 ;; This function is called by:
  4236 ;;		_INT0_ISR
  4237 ;;		_INT1_ISR
  4238 ;;		_INT2_ISR
  4239 ;; This function uses a non-reentrant model
  4240 ;;
  4241                           
  4242                           	psect	text29
  4243   001FF6                     __ptext29:
  4244                           	callstack 0
  4245   001FF6                     _INTERRUPT_FUNC_0:
  4246                           	callstack 22
  4247   001FF6                     
  4248                           ;Application.c: 26:     program_number++;
  4249   001FF6  2A56               	incf	_program_number^0,f,c	;volatile
  4250   001FF8                     
  4251                           ;Application.c: 27:     if(3 == program_number){
  4252   001FF8  0E03               	movlw	3
  4253   001FFA  1856               	xorwf	_program_number^0,w,c	;volatile
  4254   001FFC  A4D8               	btfss	status,2,c
  4255   001FFE  EF03  F010         	goto	i2u250_41
  4256   002002  EF05  F010         	goto	i2u250_40
  4257   002006                     i2u250_41:
  4258   002006  EF07  F010         	goto	i2l3600
  4259   00200A                     i2u250_40:
  4260   00200A                     
  4261                           ;Application.c: 28:         program_number = 0;
  4262   00200A  0E00               	movlw	0
  4263   00200C  6E56               	movwf	_program_number^0,c	;volatile
  4264   00200E                     i2l3600:
  4265                           
  4266                           ;Application.c: 30:     EEPROM_WRITE_DATA(0x3FF , program_number);
  4267   00200E  0E03               	movlw	3
  4268   002010  6E58               	movwf	(EEPROM_WRITE_DATA@address+1)^0,c
  4269   002012  6857               	setf	EEPROM_WRITE_DATA@address^0,c
  4270   002014  C056  F059         	movff	_program_number,EEPROM_WRITE_DATA@data	;volatile
  4271   002018  ECB7  F00E         	call	_EEPROM_WRITE_DATA	;wreg free
  4272   00201C  0012               	return		;funcret
  4273   00201E                     __end_of_INTERRUPT_FUNC_0:
  4274                           	callstack 0
  4275                           
  4276 ;; *************** function _EEPROM_WRITE_DATA *****************
  4277 ;; Defined at:
  4278 ;;		line 15 in file "MCAL_Layer/EEPROM/EEPROM.c"
  4279 ;; Parameters:    Size  Location     Type
  4280 ;;  address         2    0[COMRAM] unsigned short 
  4281 ;;  data            1    2[COMRAM] unsigned char 
  4282 ;; Auto vars:     Size  Location     Type
  4283 ;;  Interrupt_st    1    3[COMRAM] unsigned char 
  4284 ;;  ret             1    0        unsigned char 
  4285 ;; Return value:  Size  Location     Type
  4286 ;;                  1    wreg      unsigned char 
  4287 ;; Registers used:
  4288 ;;		wreg, status,2, status,0
  4289 ;; Tracked objects:
  4290 ;;		On entry : 0/0
  4291 ;;		On exit  : 0/0
  4292 ;;		Unchanged: 0/0
  4293 ;; Data sizes:     COMRAM   BANK0   BANK1   BANK2   BANK3   BANK4   BANK5   BANK6   BANK7   BANK8   BANK9  BANK10  BANK1
      +1  BANK12  BANK13  BANK14  BANK15
  4294 ;;      Params:         3       0       0       0       0       0       0       0       0       0       0       0       
      +0       0       0       0       0
  4295 ;;      Locals:         1       0       0       0       0       0       0       0       0       0       0       0       
      +0       0       0       0       0
  4296 ;;      Temps:          0       0       0       0       0       0       0       0       0       0       0       0       
      +0       0       0       0       0
  4297 ;;      Totals:         4       0       0       0       0       0       0       0       0       0       0       0       
      +0       0       0       0       0
  4298 ;;Total ram usage:        4 bytes
  4299 ;; Hardware stack levels used: 1
  4300 ;; This function calls:
  4301 ;;		Nothing
  4302 ;; This function is called by:
  4303 ;;		_INTERRUPT_FUNC_0
  4304 ;; This function uses a non-reentrant model
  4305 ;;
  4306                           
  4307                           	psect	text30
  4308   001D6E                     __ptext30:
  4309                           	callstack 0
  4310   001D6E                     _EEPROM_WRITE_DATA:
  4311                           	callstack 22
  4312   001D6E                     
  4313                           ;MCAL_Layer/EEPROM/EEPROM.c: 17:     uint8 Interrupt_status = 0;
  4314   001D6E  0E00               	movlw	0
  4315   001D70  6E5A               	movwf	EEPROM_WRITE_DATA@Interrupt_status^0,c
  4316   001D72                     
  4317                           ;MCAL_Layer/EEPROM/EEPROM.c: 19:     Interrupt_status = INTCONbits.GIE;
  4318   001D72  0E00               	movlw	0
  4319   001D74  BEF2               	btfsc	242,7,c	;volatile
  4320   001D76  0E01               	movlw	1
  4321   001D78  6E5A               	movwf	EEPROM_WRITE_DATA@Interrupt_status^0,c
  4322   001D7A                     
  4323                           ;MCAL_Layer/EEPROM/EEPROM.c: 21:     EEADR = (uint8) (address & 0xFF);
  4324   001D7A  C057  FFA9         	movff	EEPROM_WRITE_DATA@address,4009	;volatile
  4325   001D7E                     
  4326                           ;MCAL_Layer/EEPROM/EEPROM.c: 22:     EEADRH = (uint8) ((address >> 8) & 0x03);
  4327   001D7E  5058               	movf	(EEPROM_WRITE_DATA@address+1)^0,w,c
  4328   001D80  0B03               	andlw	3
  4329   001D82  6EAA               	movwf	170,c	;volatile
  4330   001D84                     
  4331                           ;MCAL_Layer/EEPROM/EEPROM.c: 24:     EEDATA = data;
  4332   001D84  C059  FFA8         	movff	EEPROM_WRITE_DATA@data,4008	;volatile
  4333   001D88                     
  4334                           ;MCAL_Layer/EEPROM/EEPROM.c: 26:     EECON1bits.EEPGD = 0;
  4335   001D88  9EA6               	bcf	166,7,c	;volsfr
  4336   001D8A                     
  4337                           ;MCAL_Layer/EEPROM/EEPROM.c: 27:     EECON1bits.CFGS = 0;
  4338   001D8A  9CA6               	bcf	166,6,c	;volsfr
  4339   001D8C                     
  4340                           ;MCAL_Layer/EEPROM/EEPROM.c: 29:     EECON1bits.WREN = 1;
  4341   001D8C  84A6               	bsf	166,2,c	;volsfr
  4342   001D8E                     
  4343                           ;MCAL_Layer/EEPROM/EEPROM.c: 31:     (INTCONbits.GIE = 0);
  4344   001D8E  9EF2               	bcf	242,7,c	;volatile
  4345   001D90                     
  4346                           ;MCAL_Layer/EEPROM/EEPROM.c: 33:     EECON2 = 0x55;
  4347   001D90  0E55               	movlw	85
  4348   001D92  6EA7               	movwf	167,c	;volsfr
  4349   001D94                     
  4350                           ;MCAL_Layer/EEPROM/EEPROM.c: 34:     EECON2 = 0xAA;
  4351   001D94  0EAA               	movlw	170
  4352   001D96  6EA7               	movwf	167,c	;volsfr
  4353   001D98                     
  4354                           ;MCAL_Layer/EEPROM/EEPROM.c: 36:     EECON1bits.WR = 1;
  4355   001D98  82A6               	bsf	166,1,c	;volsfr
  4356   001D9A                     i2l911:
  4357   001D9A  B2A6               	btfsc	166,1,c	;volsfr
  4358   001D9C  EFD2  F00E         	goto	i2u221_41
  4359   001DA0  EFD4  F00E         	goto	i2u221_40
  4360   001DA4                     i2u221_41:
  4361   001DA4  EFCD  F00E         	goto	i2l911
  4362   001DA8                     i2u221_40:
  4363   001DA8                     
  4364                           ;MCAL_Layer/EEPROM/EEPROM.c: 40:     EECON1bits.WREN = 0;
  4365   001DA8  94A6               	bcf	166,2,c	;volsfr
  4366                           
  4367                           ;MCAL_Layer/EEPROM/EEPROM.c: 42:     INTCONbits.GIE = Interrupt_status;
  4368   001DAA  B05A               	btfsc	EEPROM_WRITE_DATA@Interrupt_status^0,0,c
  4369   001DAC  D002               	bra	i2u222_45
  4370   001DAE  9EF2               	bcf	242,7,c	;volatile
  4371   001DB0  D001               	bra	i2u222_46
  4372   001DB2                     i2u222_45:
  4373   001DB2  8EF2               	bsf	242,7,c	;volatile
  4374   001DB4                     i2u222_46:
  4375   001DB4  0012               	return		;funcret
  4376   001DB6                     __end_of_EEPROM_WRITE_DATA:
  4377                           	callstack 0
  4378                           
  4379                           	psect	text31
  4380   000000                     __ptext31:
  4381                           	callstack 0
  4382   000000                     
  4383                           	psect	rparam
  4384   000000                     
  4385                           	psect	temp
  4386   000073                     btemp:
  4387                           	callstack 0
  4388   000073                     	ds	1
  4389   000000                     int$flags	set	btemp
  4390   000000                     wtemp8	set	btemp+1
  4391   000000                     ttemp5	set	btemp+1
  4392   000000                     ttemp6	set	btemp+4
  4393   000000                     ttemp7	set	btemp+8
  4394                           
  4395                           	psect	config
  4396                           
  4397                           ; Padding undefined space
  4398   300000                     	org	3145728
  4399   300000  FF                 	db	255
  4400                           
  4401                           ;Config register CONFIG1H @ 0x300001
  4402                           ;	Oscillator Selection bits
  4403                           ;	OSC = HS, HS oscillator
  4404                           ;	Fail-Safe Clock Monitor Enable bit
  4405                           ;	FCMEN = OFF, Fail-Safe Clock Monitor disabled
  4406                           ;	Internal/External Oscillator Switchover bit
  4407                           ;	IESO = OFF, Oscillator Switchover mode disabled
  4408   300001                     	org	3145729
  4409   300001  02                 	db	2
  4410                           
  4411                           ;Config register CONFIG2L @ 0x300002
  4412                           ;	Power-up Timer Enable bit
  4413                           ;	PWRT = OFF, PWRT disabled
  4414                           ;	Brown-out Reset Enable bits
  4415                           ;	BOREN = OFF, Brown-out Reset disabled in hardware and software
  4416                           ;	Brown Out Reset Voltage bits
  4417                           ;	BORV = 1, 
  4418   300002                     	org	3145730
  4419   300002  09                 	db	9
  4420                           
  4421                           ;Config register CONFIG2H @ 0x300003
  4422                           ;	Watchdog Timer Enable bit
  4423                           ;	WDT = OFF, WDT disabled (control is placed on the SWDTEN bit)
  4424                           ;	Watchdog Timer Postscale Select bits
  4425                           ;	WDTPS = 512, 1:512
  4426   300003                     	org	3145731
  4427   300003  12                 	db	18
  4428                           
  4429                           ; Padding undefined space
  4430   300004                     	org	3145732
  4431   300004  FF                 	db	255
  4432                           
  4433                           ;Config register CONFIG3H @ 0x300005
  4434                           ;	CCP2 MUX bit
  4435                           ;	CCP2MX = PORTC, CCP2 input/output is multiplexed with RC1
  4436                           ;	PORTB A/D Enable bit
  4437                           ;	PBADEN = OFF, PORTB<4:0> pins are configured as digital I/O on Reset
  4438                           ;	Low-Power Timer1 Oscillator Enable bit
  4439                           ;	LPT1OSC = OFF, Timer1 configured for higher power operation
  4440                           ;	MCLR Pin Enable bit
  4441                           ;	MCLRE = ON, MCLR pin enabled; RE3 input pin disabled
  4442   300005                     	org	3145733
  4443   300005  81                 	db	129
  4444                           
  4445                           ;Config register CONFIG4L @ 0x300006
  4446                           ;	Stack Full/Underflow Reset Enable bit
  4447                           ;	STVREN = ON, Stack full/underflow will cause Reset
  4448                           ;	Single-Supply ICSP Enable bit
  4449                           ;	LVP = OFF, Single-Supply ICSP disabled
  4450                           ;	Extended Instruction Set Enable bit
  4451                           ;	XINST = OFF, Instruction set extension and Indexed Addressing mode disabled (Legacy mo
      +                          de)
  4452                           ;	Background Debugger Enable bit
  4453                           ;	DEBUG = 0x1, unprogrammed default
  4454   300006                     	org	3145734
  4455   300006  81                 	db	129
  4456                           
  4457                           ; Padding undefined space
  4458   300007                     	org	3145735
  4459   300007  FF                 	db	255
  4460                           
  4461                           ;Config register CONFIG5L @ 0x300008
  4462                           ;	Code Protection bit
  4463                           ;	CP0 = OFF, Block 0 (000800-003FFFh) not code-protected
  4464                           ;	Code Protection bit
  4465                           ;	CP1 = OFF, Block 1 (004000-007FFFh) not code-protected
  4466                           ;	Code Protection bit
  4467                           ;	CP2 = OFF, Block 2 (008000-00BFFFh) not code-protected
  4468                           ;	Code Protection bit
  4469                           ;	CP3 = OFF, Block 3 (00C000-00FFFFh) not code-protected
  4470   300008                     	org	3145736
  4471   300008  0F                 	db	15
  4472                           
  4473                           ;Config register CONFIG5H @ 0x300009
  4474                           ;	Boot Block Code Protection bit
  4475                           ;	CPB = OFF, Boot block (000000-0007FFh) not code-protected
  4476                           ;	Data EEPROM Code Protection bit
  4477                           ;	CPD = OFF, Data EEPROM not code-protected
  4478   300009                     	org	3145737
  4479   300009  C0                 	db	192
  4480                           
  4481                           ;Config register CONFIG6L @ 0x30000A
  4482                           ;	Write Protection bit
  4483                           ;	WRT0 = OFF, Block 0 (000800-003FFFh) not write-protected
  4484                           ;	Write Protection bit
  4485                           ;	WRT1 = OFF, Block 1 (004000-007FFFh) not write-protected
  4486                           ;	Write Protection bit
  4487                           ;	WRT2 = OFF, Block 2 (008000-00BFFFh) not write-protected
  4488                           ;	Write Protection bit
  4489                           ;	WRT3 = OFF, Block 3 (00C000-00FFFFh) not write-protected
  4490   30000A                     	org	3145738
  4491   30000A  0F                 	db	15
  4492                           
  4493                           ;Config register CONFIG6H @ 0x30000B
  4494                           ;	Configuration Register Write Protection bit
  4495                           ;	WRTC = OFF, Configuration registers (300000-3000FFh) not write-protected
  4496                           ;	Boot Block Write Protection bit
  4497                           ;	WRTB = OFF, Boot Block (000000-0007FFh) not write-protected
  4498                           ;	Data EEPROM Write Protection bit
  4499                           ;	WRTD = OFF, Data EEPROM not write-protected
  4500   30000B                     	org	3145739
  4501   30000B  E0                 	db	224
  4502                           
  4503                           ;Config register CONFIG7L @ 0x30000C
  4504                           ;	Table Read Protection bit
  4505                           ;	EBTR0 = OFF, Block 0 (000800-003FFFh) not protected from table reads executed in other
      +                           blocks
  4506                           ;	Table Read Protection bit
  4507                           ;	EBTR1 = OFF, Block 1 (004000-007FFFh) not protected from table reads executed in other
      +                           blocks
  4508                           ;	Table Read Protection bit
  4509                           ;	EBTR2 = OFF, Block 2 (008000-00BFFFh) not protected from table reads executed in other
      +                           blocks
  4510                           ;	Table Read Protection bit
  4511                           ;	EBTR3 = OFF, Block 3 (00C000-00FFFFh) not protected from table reads executed in other
      +                           blocks
  4512   30000C                     	org	3145740
  4513   30000C  0F                 	db	15
  4514                           
  4515                           ;Config register CONFIG7H @ 0x30000D
  4516                           ;	Boot Block Table Read Protection bit
  4517                           ;	EBTRB = OFF, Boot Block (000000-0007FFh) not protected from table reads executed in ot
      +                          her blocks
  4518   30000D                     	org	3145741
  4519   30000D  40                 	db	64
  4520                           tosu	equ	0xFFF
  4521                           tosh	equ	0xFFE
  4522                           tosl	equ	0xFFD
  4523                           stkptr	equ	0xFFC
  4524                           pclatu	equ	0xFFB
  4525                           pclath	equ	0xFFA
  4526                           pcl	equ	0xFF9
  4527                           tblptru	equ	0xFF8
  4528                           tblptrh	equ	0xFF7
  4529                           tblptrl	equ	0xFF6
  4530                           tablat	equ	0xFF5
  4531                           prodh	equ	0xFF4
  4532                           prodl	equ	0xFF3
  4533                           indf0	equ	0xFEF
  4534                           postinc0	equ	0xFEE
  4535                           postdec0	equ	0xFED
  4536                           preinc0	equ	0xFEC
  4537                           plusw0	equ	0xFEB
  4538                           fsr0h	equ	0xFEA
  4539                           fsr0l	equ	0xFE9
  4540                           wreg	equ	0xFE8
  4541                           indf1	equ	0xFE7
  4542                           postinc1	equ	0xFE6
  4543                           postdec1	equ	0xFE5
  4544                           preinc1	equ	0xFE4
  4545                           plusw1	equ	0xFE3
  4546                           fsr1h	equ	0xFE2
  4547                           fsr1l	equ	0xFE1
  4548                           bsr	equ	0xFE0
  4549                           indf2	equ	0xFDF
  4550                           postinc2	equ	0xFDE
  4551                           postdec2	equ	0xFDD
  4552                           preinc2	equ	0xFDC
  4553                           plusw2	equ	0xFDB
  4554                           fsr2h	equ	0xFDA
  4555                           fsr2l	equ	0xFD9
  4556                           status	equ	0xFD8

Data Sizes:
    Strings     6
    Constant    16
    Data        56
    BSS         30
    Persistent  1
    Stack       0

Auto Spaces:
    Space          Size  Autos    Used
    COMRAM          126     27     114
    BANK0           128      4       4
    BANK1           256      0       0
    BANK2           256      0       0
    BANK3           256      0       0
    BANK4           256      0       0
    BANK5           256      0       0
    BANK6           256      0       0
    BANK7           256      0       0
    BANK8           256      0       0
    BANK9           256      0       0
    BANK10          256      0       0
    BANK11          256      0       0
    BANK12          256      0       0
    BANK13          256      0       0
    BANK14          256      0       0
    BANK15          128      0       0

Pointer List with Targets:

    vfprintf$2	PTR PTR void  size(2) Largest target is 2
		 -> sprintf@ap(COMRAM[2]), 

    vfprintf$1	PTR const unsigned char  size(2) Largest target is 3
		 -> STR_3(CODE[3]), STR_2(CODE[3]), STR_1(CODE[3]), 

    vfprintf$0	PTR struct _IO_FILE size(2) Largest target is 12
		 -> sprintf@f(COMRAM[12]), 

    S2214$source	PTR const unsigned char  size(2) Largest target is 0

    f...source	PTR const unsigned char  size(2) Largest target is 0

    S2214$buffer	PTR unsigned char  size(2) Largest target is 0

    f...buffer	PTR unsigned char  size(2) Largest target is 0

    EEPROM_READ_DATA@data	PTR unsigned char  size(2) Largest target is 1
		 -> program_number(COMRAM[1]), 

    INT_0.EXT_InterruptHandler	PTR FTN()void  size(2) Largest target is 1
		 -> INTERRUPT_FUNC_0(), 

    EXT_RBX_Function_Initialize@RB_X.EXT_InterruptHandler_LOW	PTR FTN()void  size(2) Largest target is 0

    EXT_RBX_Function_Initialize@RB_X.EXT_InterruptHandler_HIGH	PTR FTN()void  size(2) Largest target is 0

    EXT_RBX_Prioity_Set@RB_X.EXT_InterruptHandler_LOW	PTR FTN()void  size(2) Largest target is 0

    EXT_RBX_Prioity_Set@RB_X.EXT_InterruptHandler_HIGH	PTR FTN()void  size(2) Largest target is 0

    EXT_RBX_Pin_Initialize@RB_X.EXT_InterruptHandler_LOW	PTR FTN()void  size(2) Largest target is 0

    EXT_RBX_Pin_Initialize@RB_X.EXT_InterruptHandler_HIGH	PTR FTN()void  size(2) Largest target is 0

    S1081$EXT_InterruptHandler_LOW	PTR FTN()void  size(2) Largest target is 0

    EXT_RBX_Enable@RB_X.EXT_InterruptHandler_LOW	PTR FTN()void  size(2) Largest target is 0

    S1081$EXT_InterruptHandler_HIGH	PTR FTN()void  size(2) Largest target is 0

    EXT_RBX_Enable@RB_X.EXT_InterruptHandler_HIGH	PTR FTN()void  size(2) Largest target is 0

    RB7_InterruptHandler_LOW	PTR FTN()void  size(2) Largest target is 1
		 -> NULL(), 

    RB7_InterruptHandler_HIGH	PTR FTN()void  size(2) Largest target is 1
		 -> NULL(), 

    RB6_InterruptHandler_LOW	PTR FTN()void  size(2) Largest target is 1
		 -> NULL(), 

    RB6_InterruptHandler_HIGH	PTR FTN()void  size(2) Largest target is 1
		 -> NULL(), 

    RB5_InterruptHandler_LOW	PTR FTN()void  size(2) Largest target is 1
		 -> NULL(), 

    RB5_InterruptHandler_HIGH	PTR FTN()void  size(2) Largest target is 1
		 -> NULL(), 

    RB4_InterruptHandler_LOW	PTR FTN()void  size(2) Largest target is 1
		 -> NULL(), 

    RB4_InterruptHandler_HIGH	PTR FTN()void  size(2) Largest target is 1
		 -> NULL(), 

    INT2_SetInterruptHandler@InterruptHandler	PTR FTN()void  size(2) Largest target is 1
		 -> INTERRUPT_FUNC_0(), 

    INT1_SetInterruptHandler@InterruptHandler	PTR FTN()void  size(2) Largest target is 1
		 -> INTERRUPT_FUNC_0(), 

    INT0_SetInterruptHandler@InterruptHandler	PTR FTN()void  size(2) Largest target is 1
		 -> INTERRUPT_FUNC_0(), 

    EXT_INTX_Function_Initialize@INT_X.EXT_InterruptHandler	PTR FTN()void  size(2) Largest target is 1
		 -> INTERRUPT_FUNC_0(), 

    EXT_INTX_Function_Initialize@INT_X	PTR struct . size(2) Largest target is 6
		 -> INT_0(COMRAM[6]), 

    EXT_INTX_Pin_Initialize@INT_X.EXT_InterruptHandler	PTR FTN()void  size(2) Largest target is 1
		 -> INTERRUPT_FUNC_0(), 

    EXT_INTX_Pin_Initialize@INT_X	PTR struct . size(2) Largest target is 6
		 -> INT_0(COMRAM[6]), 

    EXT_INTX_Prioity_Set@INT_X.EXT_InterruptHandler	PTR FTN()void  size(2) Largest target is 1
		 -> INTERRUPT_FUNC_0(), 

    EXT_INTX_Prioity_Set@INT_X	PTR struct . size(2) Largest target is 6
		 -> INT_0(COMRAM[6]), 

    EXT_INTX_Edge_Set@INT_X.EXT_InterruptHandler	PTR FTN()void  size(2) Largest target is 1
		 -> INTERRUPT_FUNC_0(), 

    EXT_INTX_Edge_Set@INT_X	PTR struct . size(2) Largest target is 6
		 -> INT_0(COMRAM[6]), 

    EXT_INTX_Clear_Flag@INT_X.EXT_InterruptHandler	PTR FTN()void  size(2) Largest target is 1
		 -> INTERRUPT_FUNC_0(), 

    EXT_INTX_Clear_Flag@INT_X	PTR struct . size(2) Largest target is 6
		 -> INT_0(COMRAM[6]), 

    EXT_INTX_Disable_Helper@INT_X.EXT_InterruptHandler	PTR FTN()void  size(2) Largest target is 1
		 -> INTERRUPT_FUNC_0(), 

    EXT_INTX_Disable_Helper@INT_X	PTR struct . size(2) Largest target is 6
		 -> INT_0(COMRAM[6]), 

    S816$EXT_InterruptHandler	PTR FTN()void  size(2) Largest target is 1
		 -> INTERRUPT_FUNC_0(), 

    EXT_INTX_Enable@INT_X.EXT_InterruptHandler	PTR FTN()void  size(2) Largest target is 1
		 -> INTERRUPT_FUNC_0(), 

    EXT_INTX_Enable@INT_X	PTR struct . size(2) Largest target is 6
		 -> INT_0(COMRAM[6]), 

    INT2_InterruptHandler	PTR FTN()void  size(2) Largest target is 1
		 -> INTERRUPT_FUNC_0(), NULL(), 

    INT1_InterruptHandler	PTR FTN()void  size(2) Largest target is 1
		 -> INTERRUPT_FUNC_0(), NULL(), 

    INT0_InterruptHandler	PTR FTN()void  size(2) Largest target is 1
		 -> INTERRUPT_FUNC_0(), NULL(), 

    EXT_INTX_Intialize@INT_X	PTR struct . size(2) Largest target is 6
		 -> INT_0(COMRAM[6]), 

    gpio_pin_intialize@str	PTR const struct . size(2) Largest target is 1
		 -> relay_initialize@rel_pin(COMRAM[1]), led_intialize@LED_IN(BANK0[1]), 

    gpio_pin_write_logic@str	PTR const struct . size(2) Largest target is 1
		 -> relay_off@rel_pin(COMRAM[1]), relay_on@rel_pin(COMRAM[1]), relay_initialize@rel_pin(COMRAM[1]), led_turn_off@LED_IN(COMRAM[1]), 
		 -> led_turn_on@LED_IN(COMRAM[1]), led_intialize@LED_IN(BANK0[1]), 

    gpio_pin_direction_intialize@str	PTR const struct . size(2) Largest target is 6
		 -> INT_0.INTX_PIN(COMRAM[1]), INT_0(COMRAM[6]), relay_initialize@rel_pin(COMRAM[1]), led_intialize@LED_IN(BANK0[1]), 

    PORT_REG	PTR volatile unsigned char [5] size(2) Largest target is 1
		 -> PORTE(BITBIGSFRl[1]), PORTD(BITBIGSFRl[1]), PORTC(BITBIGSFRl[1]), PORTB(BITBIGSFRl[1]), 
		 -> PORTA(BITBIGSFRl[1]), 

    TRIS_REG	PTR volatile unsigned char [5] size(2) Largest target is 1
		 -> TRISE(BITBIGSFRhhlllll[1]), TRISD(BITBIGSFRhhlllll[1]), TRISC(BITBIGSFRhhlllll[1]), TRISB(BITBIGSFRhhlllll[1]), 
		 -> TRISA(BITBIGSFRhl[1]), 

    LAT_REG	PTR volatile unsigned char [5] size(2) Largest target is 1
		 -> LATE(BITBIGSFRhl[1]), LATD(BITBIGSFRhl[1]), LATC(BITBIGSFRhl[1]), LATB(BITBIGSFRhl[1]), 
		 -> LATA(BITBIGSFRl[1]), 

    led_turn_off@LED_CONFIG	PTR struct . size(2) Largest target is 1
		 -> led_2(COMRAM[1]), led_1(COMRAM[1]), 

    led_turn_on@LED_CONFIG	PTR struct . size(2) Largest target is 1
		 -> led_2(COMRAM[1]), led_1(COMRAM[1]), 

    led_intialize@LED_CONFIG	PTR struct . size(2) Largest target is 1
		 -> led_2(COMRAM[1]), led_1(COMRAM[1]), 

    sp__memset	PTR void  size(2) Largest target is 0


Critical Paths under _main in COMRAM

    _main->_led_intialize
    _led_turn_on->_gpio_pin_write_logic
    _led_turn_off->_gpio_pin_write_logic
    _led_intialize->_gpio_pin_intialize
    _gpio_pin_intialize->_gpio_pin_write_logic
    _EXT_INTX_Intialize->_EXT_INTX_Pin_Initialize
    _EXT_INTX_Pin_Initialize->_gpio_pin_direction_intialize
    _EXT_INTX_Function_Initialize->_INT0_SetInterruptHandler
    _EXT_INTX_Function_Initialize->_INT1_SetInterruptHandler
    _EXT_INTX_Function_Initialize->_INT2_SetInterruptHandler

Critical Paths under _LOW_PRIORITY_INTERRUPTS in COMRAM

    _LOW_PRIORITY_INTERRUPTS->_RB7_ISR

Critical Paths under _InterruptManagerHigh in COMRAM

    _INTERRUPT_FUNC_0->_EEPROM_WRITE_DATA

Critical Paths under _main in BANK0

    _main->_led_intialize

Critical Paths under _LOW_PRIORITY_INTERRUPTS in BANK0

    None.

Critical Paths under _InterruptManagerHigh in BANK0

    None.

Critical Paths under _main in BANK1

    None.

Critical Paths under _LOW_PRIORITY_INTERRUPTS in BANK1

    None.

Critical Paths under _InterruptManagerHigh in BANK1

    None.

Critical Paths under _main in BANK2

    None.

Critical Paths under _LOW_PRIORITY_INTERRUPTS in BANK2

    None.

Critical Paths under _InterruptManagerHigh in BANK2

    None.

Critical Paths under _main in BANK3

    None.

Critical Paths under _LOW_PRIORITY_INTERRUPTS in BANK3

    None.

Critical Paths under _InterruptManagerHigh in BANK3

    None.

Critical Paths under _main in BANK4

    None.

Critical Paths under _LOW_PRIORITY_INTERRUPTS in BANK4

    None.

Critical Paths under _InterruptManagerHigh in BANK4

    None.

Critical Paths under _main in BANK5

    None.

Critical Paths under _LOW_PRIORITY_INTERRUPTS in BANK5

    None.

Critical Paths under _InterruptManagerHigh in BANK5

    None.

Critical Paths under _main in BANK6

    None.

Critical Paths under _LOW_PRIORITY_INTERRUPTS in BANK6

    None.

Critical Paths under _InterruptManagerHigh in BANK6

    None.

Critical Paths under _main in BANK7

    None.

Critical Paths under _LOW_PRIORITY_INTERRUPTS in BANK7

    None.

Critical Paths under _InterruptManagerHigh in BANK7

    None.

Critical Paths under _main in BANK8

    None.

Critical Paths under _LOW_PRIORITY_INTERRUPTS in BANK8

    None.

Critical Paths under _InterruptManagerHigh in BANK8

    None.

Critical Paths under _main in BANK9

    None.

Critical Paths under _LOW_PRIORITY_INTERRUPTS in BANK9

    None.

Critical Paths under _InterruptManagerHigh in BANK9

    None.

Critical Paths under _main in BANK10

    None.

Critical Paths under _LOW_PRIORITY_INTERRUPTS in BANK10

    None.

Critical Paths under _InterruptManagerHigh in BANK10

    None.

Critical Paths under _main in BANK11

    None.

Critical Paths under _LOW_PRIORITY_INTERRUPTS in BANK11

    None.

Critical Paths under _InterruptManagerHigh in BANK11

    None.

Critical Paths under _main in BANK12

    None.

Critical Paths under _LOW_PRIORITY_INTERRUPTS in BANK12

    None.

Critical Paths under _InterruptManagerHigh in BANK12

    None.

Critical Paths under _main in BANK13

    None.

Critical Paths under _LOW_PRIORITY_INTERRUPTS in BANK13

    None.

Critical Paths under _InterruptManagerHigh in BANK13

    None.

Critical Paths under _main in BANK14

    None.

Critical Paths under _LOW_PRIORITY_INTERRUPTS in BANK14

    None.

Critical Paths under _InterruptManagerHigh in BANK14

    None.

Critical Paths under _main in BANK15

    None.

Critical Paths under _LOW_PRIORITY_INTERRUPTS in BANK15

    None.

Critical Paths under _InterruptManagerHigh in BANK15

    None.

Call Graph Tables:

 ---------------------------------------------------------------------------------
 (Depth) Function   	        Calls       Base Space   Used Autos Params    Refs
 ---------------------------------------------------------------------------------
 (0) _main                                                 2     2      0   24669
                                              2 BANK0      2     2      0
                   _EEPROM_READ_DATA
                 _EXT_INTX_Intialize
                      _led_intialize
                       _led_turn_off
                        _led_turn_on
 ---------------------------------------------------------------------------------
 (1) _led_turn_on                                          5     3      2    6270
                                             21 COMRAM     4     2      2
               _gpio_pin_write_logic
 ---------------------------------------------------------------------------------
 (1) _led_turn_off                                         5     3      2    6270
                                             21 COMRAM     4     2      2
               _gpio_pin_write_logic
 ---------------------------------------------------------------------------------
 (1) _led_intialize                                        5     3      2    8583
                                             25 COMRAM     2     0      2
                                              0 BANK0      2     2      0
                 _gpio_pin_intialize
 ---------------------------------------------------------------------------------
 (2) _gpio_pin_intialize                                   4     2      2    8123
                                             21 COMRAM     4     2      2
       _gpio_pin_direction_intialize
               _gpio_pin_write_logic
 ---------------------------------------------------------------------------------
 (2) _gpio_pin_write_logic                                10     7      3    5837
                                             12 COMRAM     9     6      3
 ---------------------------------------------------------------------------------
 (1) _EXT_INTX_Intialize                                   3     1      2    3258
                                             23 COMRAM     3     1      2
                _EXT_INTX_Clear_Flag
            _EXT_INTX_Disable_Helper
                  _EXT_INTX_Edge_Set
                    _EXT_INTX_Enable
       _EXT_INTX_Function_Initialize
            _EXT_INTX_Pin_Initialize
               _EXT_INTX_Prioity_Set
 ---------------------------------------------------------------------------------
 (2) _EXT_INTX_Prioity_Set                                 5     3      2     232
                                             12 COMRAM     4     2      2
 ---------------------------------------------------------------------------------
 (2) _EXT_INTX_Pin_Initialize                              3     1      2    1110
                                             20 COMRAM     3     1      2
       _gpio_pin_direction_intialize
 ---------------------------------------------------------------------------------
 (3) _gpio_pin_direction_intialize                         9     7      2     918
                                             12 COMRAM     8     6      2
 ---------------------------------------------------------------------------------
 (2) _EXT_INTX_Function_Initialize                         5     3      2     648
                                             14 COMRAM     5     3      2
           _INT0_SetInterruptHandler
           _INT1_SetInterruptHandler
           _INT2_SetInterruptHandler
 ---------------------------------------------------------------------------------
 (3) _INT2_SetInterruptHandler                             3     1      2     145
                                             12 COMRAM     2     0      2
 ---------------------------------------------------------------------------------
 (3) _INT1_SetInterruptHandler                             3     1      2     145
                                             12 COMRAM     2     0      2
 ---------------------------------------------------------------------------------
 (3) _INT0_SetInterruptHandler                             3     1      2     145
                                             12 COMRAM     2     0      2
 ---------------------------------------------------------------------------------
 (2) _EXT_INTX_Enable                                      5     3      2     232
                                             12 COMRAM     4     2      2
 ---------------------------------------------------------------------------------
 (2) _EXT_INTX_Edge_Set                                    5     3      2     276
                                             12 COMRAM     4     2      2
 ---------------------------------------------------------------------------------
 (2) _EXT_INTX_Disable_Helper                              5     3      2     220
                                             12 COMRAM     4     2      2
 ---------------------------------------------------------------------------------
 (2) _EXT_INTX_Clear_Flag                                  5     3      2     144
                                             12 COMRAM     4     2      2
 ---------------------------------------------------------------------------------
 (1) _EEPROM_READ_DATA                                     6     2      4     288
                                             12 COMRAM     5     1      4
 ---------------------------------------------------------------------------------
 Estimated maximum stack depth 3
 ---------------------------------------------------------------------------------
 (Depth) Function   	        Calls       Base Space   Used Autos Params    Refs
 ---------------------------------------------------------------------------------
 (4) _LOW_PRIORITY_INTERRUPTS                              3     3      0      15
                                              9 COMRAM     3     3      0
                            _RB7_ISR
 ---------------------------------------------------------------------------------
 (5) _RB7_ISR                                              3     3      0      15
                                              6 COMRAM     3     3      0
 ---------------------------------------------------------------------------------
 Estimated maximum stack depth 5
 ---------------------------------------------------------------------------------
 (Depth) Function   	        Calls       Base Space   Used Autos Params    Refs
 ---------------------------------------------------------------------------------
 (6) _InterruptManagerHigh                                 2     2      0     814
                                              4 COMRAM     2     2      0
                           _INT0_ISR
                           _INT1_ISR
                           _INT2_ISR
                            _RB4_ISR
                            _RB5_ISR
                            _RB6_ISR
                          i2_RB7_ISR
 ---------------------------------------------------------------------------------
 (7) i2_RB7_ISR                                            3     3      0      22
                                              0 COMRAM     3     3      0
 ---------------------------------------------------------------------------------
 (7) _RB6_ISR                                              3     3      0      15
                                              0 COMRAM     3     3      0
 ---------------------------------------------------------------------------------
 (7) _RB5_ISR                                              3     3      0      15
                                              0 COMRAM     3     3      0
 ---------------------------------------------------------------------------------
 (7) _RB4_ISR                                              3     3      0      15
                                              0 COMRAM     3     3      0
 ---------------------------------------------------------------------------------
 (7) _INT2_ISR                                             0     0      0     249
                                NULL *
                   _INTERRUPT_FUNC_0 *
 ---------------------------------------------------------------------------------
 (7) _INT1_ISR                                             0     0      0     249
                                NULL *
                   _INTERRUPT_FUNC_0 *
 ---------------------------------------------------------------------------------
 (7) _INT0_ISR                                             0     0      0     249
                                NULL *
                   _INTERRUPT_FUNC_0 *
 ---------------------------------------------------------------------------------
 (8) _INTERRUPT_FUNC_0                                     0     0      0     249
                  _EEPROM_WRITE_DATA
 ---------------------------------------------------------------------------------
 (9) _EEPROM_WRITE_DATA                                    5     2      3     249
                                              0 COMRAM     4     1      3
 ---------------------------------------------------------------------------------
 (8) NULL(Fake)                                            0     0      0       0
 ---------------------------------------------------------------------------------
 Estimated maximum stack depth 9
 ---------------------------------------------------------------------------------

 Call Graph Graphs:

 _main (ROOT)
   _EEPROM_READ_DATA
   _EXT_INTX_Intialize
     _EXT_INTX_Clear_Flag
     _EXT_INTX_Disable_Helper
     _EXT_INTX_Edge_Set
     _EXT_INTX_Enable
     _EXT_INTX_Function_Initialize
       _INT0_SetInterruptHandler
       _INT1_SetInterruptHandler
       _INT2_SetInterruptHandler
     _EXT_INTX_Pin_Initialize
       _gpio_pin_direction_intialize
     _EXT_INTX_Prioity_Set
   _led_intialize
     _gpio_pin_intialize
       _gpio_pin_direction_intialize
       _gpio_pin_write_logic
   _led_turn_off
     _gpio_pin_write_logic
   _led_turn_on
     _gpio_pin_write_logic

 _LOW_PRIORITY_INTERRUPTS (ROOT)
   _RB7_ISR

 _InterruptManagerHigh (ROOT)
   _INT0_ISR
     NULL(Fake) *
     _INTERRUPT_FUNC_0 *
       _EEPROM_WRITE_DATA
   _INT1_ISR
     NULL(Fake) *
     _INTERRUPT_FUNC_0 *
   _INT2_ISR
     NULL(Fake) *
     _INTERRUPT_FUNC_0 *
   _RB4_ISR
   _RB5_ISR
   _RB6_ISR
   i2_RB7_ISR

 Address spaces:
Name               Size   Autos  Total    Cost      Usage
BIGRAM             F7F      0       0      43        0.0%
EEDATA             400      0       0       0        0.0%
BITBANK14          100      0       0      32        0.0%
BANK14             100      0       0      33        0.0%
BITBANK13          100      0       0      30        0.0%
BANK13             100      0       0      31        0.0%
BITBANK12          100      0       0      28        0.0%
BANK12             100      0       0      29        0.0%
BITBANK11          100      0       0      26        0.0%
BANK11             100      0       0      27        0.0%
BITBANK10          100      0       0      24        0.0%
BANK10             100      0       0      25        0.0%
BITBANK9           100      0       0      22        0.0%
BANK9              100      0       0      23        0.0%
BITBANK8           100      0       0      20        0.0%
BANK8              100      0       0      21        0.0%
BITBANK7           100      0       0      18        0.0%
BANK7              100      0       0      19        0.0%
BITBANK6           100      0       0      16        0.0%
BANK6              100      0       0      17        0.0%
BITBANK5           100      0       0      14        0.0%
BANK5              100      0       0      15        0.0%
BITBANK4           100      0       0      12        0.0%
BANK4              100      0       0      13        0.0%
BITBANK3           100      0       0      10        0.0%
BANK3              100      0       0      11        0.0%
BITBANK2           100      0       0       8        0.0%
BANK2              100      0       0       9        0.0%
BITBANK1           100      0       0       6        0.0%
BANK1              100      0       0       7        0.0%
BITBANK15           80      0       0      34        0.0%
BANK15              80      0       0      35        0.0%
BITBANK0            80      0       0       4        0.0%
BANK0               80      4       4       5        3.1%
BITCOMRAM           7E      0       0       0        0.0%
COMRAM              7E     1B      72       1       90.5%
BITBIGSFRhhlllh     25      0       0      38        0.0%
BITBIGSFRhhllh      1F      0       0      37        0.0%
BITBIGSFRhhllll      F      0       0      39        0.0%
BITBIGSFRhhh         D      0       0      36        0.0%
BITBIGSFRhl          4      0       0      40        0.0%
BITBIGSFRl           4      0       0      41        0.0%
BIGSFR               0      0       0     200        0.0%
BITSFR               0      0       0     200        0.0%
SFR                  0      0       0     200        0.0%
STACK                0      0       0       2        0.0%
NULL                 0      0       0       0        0.0%
ABS                  0      0      76      42        0.0%
DATA                 0      0      76       3        0.0%
CODE                 0      0       0       0        0.0%


Microchip Technology PIC18 Macro Assembler V2.41 build 20230208172133 
Symbol Table                                                                                   Wed Sep 20 18:07:21 2023

                           _led_intialize 1ACC                                        bsr 0FE0  
                                     l230 1B04                                       l236 1B64  
                                     l245 1A30                                       l254 1ACA  
                                     l239 19CE                                       l248 1A68  
                                     l419 1D1A                                       l613 13D4  
                                     l374 1610                                       l631 18E8  
                                     l624 18E6                                       l529 1BDE  
                                     l562 1786                                       l555 1732  
                                     l379 1612                                       l564 17CA  
                                     l652 208E                                       l636 1F6A  
                                     l557 173C                                       l590 1CB2  
                                     l574 1BF6                                       l662 2042  
                                     l398 14F4                                       l559 1780  
                                     l647 1996                                       l576 1BFC  
                                     l568 1810                                       l585 1C60  
                                     l577 1C02                                       l657 2068  
                                     l587 1C66                                       l579 1C48  
                                     l588 1C6C                                       l598 1308  
                                     l919 1D6C                ??_INT0_SetInterruptHandler 0065  
                  ??_InterruptManagerHigh 005B                 _RB5_InterruptHandler_HIGH 0043  
                                     _ret 0072                  __end_of_EEPROM_READ_DATA 1D6E  
                                     prod 0FF3                     relay_initialize@F3042 0051  
                                     tosl 0FFD                                       wreg 0FE8  
                            ?_led_turn_on 006C                           __end_of_RB4_ISR 1F06  
                         __end_of_RB5_ISR 1ECE                           __end_of_RB6_ISR 1E96  
                         __end_of_RB7_ISR 1E26                                      l3310 207C  
                                    l3312 2080                                      l3320 2044  
                                    l3306 206A                                      l3330 2066  
                                    l3322 2044                                      l3316 208C  
                                    l3308 206A                                      l3324 2056  
                                    l3340 2034                                      l3430 1C08  
                                    l3326 205A                                      l3334 201E  
                                    l3510 1812                                      l3440 1C4A  
                                    l3432 1C46                                      l3424 1BE0  
                                    l3344 2040                                      l3336 201E  
                                    l3520 1866                                      l3512 1824  
                                    l3442 1C4A                                      l3426 1BE0  
                                    l3338 2030                                      l3522 186C  
                                    l3514 1828                                      l3530 18B0  
                                    l3444 1C5C                                      l3428 1BF2  
                                    l3460 12C0                                      l3540 18EA  
                                    l3524 1888                                      l3516 1844  
                                    l3532 18E6                                      l3508 1812  
                                    l3446 1C72                                      l3470 130C  
                                    l3462 12C4                                      l3550 193C  
                                    l3542 18EE                                      l4510 1526  
                                    l3526 188E                                      l3518 184A  
                                    l3800 1D20                                      l3448 1CB0  
                                    l3480 136C                                      l3472 1328  
                                    l3464 12E0                                      l3456 12AE  
                                    l3544 1900                                      l3552 1956  
                                    l4512 152A                                      l4504 14F6  
                                    l4600 1F3C                                      l3528 18AA  
                                    l3810 1D48                                      l3802 1D32  
                                    l3482 1372                                      l3474 132E  
                                    l3466 12E6                                      l3458 12AE  
                                    l3570 175A                                      l3562 171C  
                                    l3546 1908                                      l3554 1994  
                                    l4514 1540                                      l4506 14F6  
                                    l4602 1F3C                                      l4530 1406  
                                    l3820 1D52                                      l3812 1D4A  
                                    l3804 1D36                                      l3484 138E  
                                    l3476 134A                                      l3468 1302  
                                    l3580 17AC                                      l3572 1762  
                                    l3564 171C                                      l3548 1922  
                                    l4516 15A2                                      l4508 1508  
                                    l4604 1F4E                                      l4532 140A  
                                    l4540 14F2                                      l4524 13D6  
                                    l3822 1D54                                      l3814 1D4C  
                                    l3806 1D3E                                      l3478 1350  
                                    l3486 1394                                      l3582 17C8  
                                    l3574 177E                                      l3566 172E  
                                    l4518 15B8                                      l4606 1F56  
                                    l4534 1466                                      l4526 13D6  
                                    l4550 1CB4                                      l4710 1ADE  
                                    l3824 1D60                                      l3816 1D4E  
                                    l3808 1D42                                      l3488 13D2  
                                    l3576 1788                                      l3568 173E  
                                    l3584 17D0                                      l4608 1F68  
                                    l4528 13E8                                      l4552 1CC6  
                                    l4720 1B56                                      l4712 1B00  
                                    l5280 1670                                      l5272 1614  
                                    l3818 1D50                                      l3826 1D6A  
                                    l3578 17A4                                      l3586 180E  
                                    l4538 14C8                                      l4554 1CE4  
                                    l4714 1B08                                      l4722 1B62  
                                    l4706 1ACC                                      l4730 19AA  
                                    l5290 16EC                                      l5282 168A  
                                    l5274 163E                                      l5540 13B4  
                                    l5532 14DC                                      l4556 1CEC  
                                    l4548 1CB4                                      l4716 1B40  
                                    l4708 1ACC                                      l4740 1A1E  
                                    l4732 19CA                                      l5284 16B2  
                                    l5276 1652                                      l5542 1C28  
                                    l5534 18D0                                      l4558 1D18  
                                    l4718 1B42                                      l4750 1A44  
                                    l4734 19D2                                      l4742 1A2E  
                                    l4726 1998                                      l5286 16C4  
                                    l5278 1662                                      l5544 1C92  
                                    l5536 1976                                      l4760 1AB8  
                                    l4752 1A64                                      l4736 1A0A  
                                    l4728 1998                                      l5288 16D2  
                                    l5538 17F0                                      l4770 1B78  
                                    l4754 1A6C                                      l4762 1AC8  
                                    l4746 1A32                                      l4738 1A0C  
                                    l4780 1BCE                                      l4772 1B80  
                                    l4756 1AA4                                      l4748 1A32  
                                    l3798 1D1C                                      l4774 1BAA  
                                    l4782 1BDC                                      l4766 1B66  
                                    l4758 1AA6                                      l4776 1BB6  
                                    l4768 1B66                                      l4778 1BC2  
                                    STR_1 1011                                      STR_2 1014  
                                    u2200 2030                                      u2201 202C  
                                    u2300 1C5C                                      u2301 1C58  
                                    _LATA 0F89                                      u2310 12C0  
                                    _LATB 0F8A                                      u2311 12BC  
                                    _LATC 0F8B                                      u2320 12E0  
                                    u2400 1844                                      _LATD 0F8C  
                                    u2321 12DC                                      u2401 1840  
                                    _LATE 0F8D                                      u2330 1302  
                                    u2410 1866                                      u2331 12FE  
                                    u2411 1862                                      u2340 1328  
                                    u2180 207C                                      u2420 1888  
                                    u2341 1324                                      u2181 2078  
                                    u2421 1884                                      u2350 134A  
                                    u2190 2056                                      u2430 18AA  
                                    u2351 1346                                      u2191 2052  
                                    u2431 18A6                                      u2360 136C  
                                    u2440 1900                                      u2361 1368  
                                    u2441 18FC                                      u2290 1BF2  
                                    u2370 138E                                      u2450 172E  
                                    u2291 1BEE                                      u2371 138A  
                                    u2451 172A                                      u2460 175A  
                                    u2461 1756                                      u2470 177E  
                                    u2390 1824                                      u2471 177A  
                                    u2391 1820                                      u2480 17A4  
                                    u2481 17A0                                      u2490 17C8  
                                    u2491 17C4                                      u3700 1406  
                                    u3701 1402                                      u3630 1508  
                                    u4430 1662                                      u3631 1504  
                                    u4431 165E                                      u3640 1526  
                                    u4440 16C4                                      u3641 1522  
                                    u4441 16C0                                      u2770 1D32  
                                    u3650 1540                                      u3714 1426  
                                    u3730 1CC6                                      u2771 1D2E  
                                    u3651 153C                                      u3715 1422  
                                    u3731 1CC2                                      u3724 1482  
                                    u3740 1CE4                                      u3900 1ADE  
                                    u3725 147E                                      u3741 1CE0  
                                    u3901 1ADA                                      u3670 15B8  
                                    u3910 1B00                                      u3671 15B4  
                                    u3911 1AFC                                      u3664 155C  
                                    u2785 1D68                                      u3665 1558  
                                    u4457 167C                                      u2786 1D6A  
                                    u3690 13E8                                      u3930 19AA  
                                    u3691 13E4                                      u3931 19A6  
                                    u4467 16A4                                      u3684 15D4  
                                    u3940 19CA                                      u3685 15D0  
                                    u3925 1B52                                      u3941 19C6  
                                    u4477 16DE                                      u3790 1F4E  
                                    u3791 1F4A                                      u3927 1B56  
                                    u4487 1706                                      u3960 1A44  
                                    u3961 1A40                                      u3970 1A64  
                                    u3971 1A60                                      u3955 1A1C  
                                    u3957 1A1E                                      u3990 1B78  
                                    u3991 1B74                                      u3985 1AB6  
                                    u3987 1AB8             ?_EXT_INTX_Function_Initialize 0065  
                _RB4_InterruptHandler_LOW 0045                                      _main 1614  
                _RB7_InterruptHandler_LOW 0039                                      fsr2h 0FDA  
                                    indf2 0FDF                                      fsr1l 0FE1  
                                    fsr2l 0FD9                                      btemp 0073  
               ?_INT2_SetInterruptHandler 0063                                      prodl 0FF3  
                                    start 00BE                     RB5_ISR@FUNC_DETECTION 0059  
                           ?_led_turn_off 006C                            ?_led_intialize 0070  
                            ___param_bank 0000                      _gpio_pin_write_logic 13D6  
                        __end_of_INT0_ISR 1FF6                          __end_of_INT1_ISR 1FC8  
                        __end_of_INT2_ISR 1F9A                                     ?_main 0057  
                ?_EXT_INTX_Pin_Initialize 006B                                     _EEADR 0FA9  
                                   i1l720 1E24                                     i1l853 006A  
                                   i2l544 1FC6                                     i2l720 1E5C  
                                   i1l856 00AE                                     i2l539 1FF4  
                                   i2l708 1E94                                     i2l549 1F98  
                                   i2l830 1082                                     i2l911 1D9A  
                                   i2l840 11D6                                     i2l832 10C6  
                                   i2l913 1DA8                                     i2l914 1DB4  
                                   i2l842 121A                                     i2l834 110A  
                                   i2l826 1042                                     i2l684 1F04  
                                   i2l844 125E                                     i2l836 114E  
                                   i2l828 1062                                     i2l838 1192  
                                   _INT_0 0031                                     i2l847 12A2  
                                   i2l696 1ECC                                     i2l882 201C  
                                   _PORTA 0F80                                     _PORTB 0F81  
                                   _PORTC 0F82                                     _PORTD 0F83  
                                   _PORTE 0F84                                     _TRISA 0F92  
                                   _TRISB 0F93                                     _TRISC 0F94  
                                   _TRISD 0F95                                     _TRISE 0F96  
                                   _lcd_1 0027                                     _led_1 0038  
                                   _led_2 0037                  _INT1_SetInterruptHandler 2044  
                                   pclath 0FFA                                     pclatu 0FFB  
                                   tablat 0FF5                                     ttemp5 0074  
                                   ttemp6 0077                                     ttemp7 007B  
                                   status 0FD8                                     wtemp8 0074  
                          ??_led_turn_off 006E                           __initialization 1F06  
                  led_turn_off@LED_CONFIG 006C                              __end_of_main 171C  
                   ?_gpio_pin_write_logic 0063              EXT_INTX_Disable_Helper@INT_X 0063  
                                  ??_main 0082                             __activetblptr 0003  
            EXT_INTX_Pin_Initialize@INT_X 006B                          led_turn_on@F3053 0054  
                               ??_RB4_ISR 0057                                 ??_RB5_ISR 0057  
                               ??_RB6_ISR 0057                                 ??_RB7_ISR 005D  
                                  _EEADRH 0FAA                                    _EEDATA 0FA8  
                                  _EECON2 0FA7                                    i1l2210 1DF6  
                                  i1l2208 1DF0                                    i1l2218 1DFA  
                                  i1l3180 0060                                    i1l3172 0026  
                                  i1l3190 00A4                                    i1l3182 0064  
                                  i1l3174 0034                                    i1l3192 00A8  
                                  i1l3184 0078                                    i1l3176 0042  
                                  i1l3186 0086                                    i1l3178 0050  
                                  i1l3188 0094                                    i2l2202 1E6A  
                                  i2l2160 1ED0                                    i2l2162 1ED6  
                                  i2l2170 1EDA                                    i2l2176 1E98  
                                  i2l2192 1E60                                    i2l2178 1E9E  
                                  i2l2186 1EA2                                    i2l2194 1E66  
                                  i1l5546 1E0E                                    i2l3350 1D72  
                                  i2l3360 1D8A                                    i2l3352 1D7A  
                                  i2l3600 200E                                    i2l4400 11BC  
                                  i2l3370 1D98                                    i2l3362 1D8C  
                                  i2l3354 1D7E                                    i2l4410 1200  
                                  i2l4402 11CC                                    i2l3364 1D8E  
                                  i2l3356 1D84                                    i2l3348 1D6E  
                                  i2l4420 1244                                    i2l4412 1210  
                                  i2l4404 11D0                                    i2l3366 1D90  
                                  i2l3358 1D88                                    i2l4430 1288  
                                  i2l4422 1254                                    i2l4414 1214  
                                  i2l4406 11E4                                    i2l4350 105E  
                                  i2l4342 1022                                    i2l3368 1D94  
                                  i2l4432 1298                                    i2l4424 1258  
                                  i2l4416 1228                                    i2l4408 11F2  
                                  i2l4360 10AC                                    i2l4352 1070  
                                  i2l4344 1030                                    i2l4434 129C  
                                  i2l4426 126C                                    i2l4418 1236  
                                  i2l4370 10F0                                    i2l4362 10BC  
                                  i2l4354 107E                                    i2l4346 103E  
                                  i2l4428 127A                                    i2l4380 1134  
                                  i2l4372 1100                                    i2l4364 10C0  
                                  i2l4356 1090                                    i2l4348 1050  
                                  i2l3830 1E28                                    i2l4390 1178  
                                  i2l4382 1144                                    i2l4374 1104  
                                  i2l4366 10D4                                    i2l4358 109E  
                                  i2l3832 1E2E                                    i2l3840 1E32  
                                  i2l4392 1188                                    i2l4384 1148  
                                  i2l4376 1118                                    i2l4368 10E2  
                                  i2l3594 1FF6                                    i2l4394 118C  
                                  i2l4386 115C                                    i2l4378 1126  
                                  i2l3596 1FF8                                    i2l3780 1FC8  
                                  i2l4396 11A0                                    i2l4388 116A  
                                  i2l3598 200A                                    i2l3782 1FCA  
                                  i2l3790 1FAE                                    i2l5550 1E7E  
                                  i2l4398 11AE                                    i2l3784 1FDC  
                                  i2l3792 1F6C                                    i2l5552 1EB6  
                                  i2l3786 1F9A                                    i2l3794 1F6E  
                                  i2l5554 1EEE                                    i2l3788 1F9C  
                                  i2l3796 1F80                                    i2l5548 1E46  
                       __end_ofi2_RB7_ISR 1E5E                           ??_led_intialize 0080  
          ??_EXT_INTX_Function_Initialize 0067           __end_of_EXT_INTX_Pin_Initialize 1F6C  
                                  clear_0 1F2C                          _INTERRUPT_FUNC_0 1FF6  
                                  isa$std 0001                              __pdataCOMRAM 0001  
                            __mediumconst 0000                                    tblptrh 0FF7  
                                  tblptrl 0FF6                                    tblptru 0FF8  
INT2_SetInterruptHandler@InterruptHandler 0063  INT1_SetInterruptHandler@InterruptHandler 0063  
INT0_SetInterruptHandler@InterruptHandler 0063                                __accesstop 0080  
                 __end_of__initialization 1F32                                 ?_INT0_ISR 0057  
                               ?_INT1_ISR 0057                                 ?_INT2_ISR 0057  
                           ___rparam_used 0001                    ??_gpio_pin_write_logic 0066  
                          __pcstackCOMRAM 0057                   _LOW_PRIORITY_INTERRUPTS 0018  
            __end_of_EXT_INTX_Prioity_Set 18EA                     led_turn_on@LED_CONFIG 006C  
                    __end_of_led_turn_off 1ACC                         ?_EEPROM_READ_DATA 0063  
        __end_of_INT2_SetInterruptHandler 2044                        ??_EEPROM_READ_DATA 0067  
                 _EXT_INTX_Disable_Helper 1BE0                     _INT0_InterruptHandler 004D  
                              ??_INT0_ISR 005B                                ??_INT1_ISR 005B  
                              ??_INT2_ISR 005B                                __pnvCOMRAM 0072  
       EEPROM_WRITE_DATA@Interrupt_status 005A                         led_turn_on@LED_IN 006F  
                       led_turn_off@F3058 0053                           led_toggle@F3063 0052  
        EEPROM_READ_DATA@Interrupt_status 0067                         ??_EXT_INTX_Enable 0065  
              ??_INT1_SetInterruptHandler 0065                                   _RB4_ISR 1ECE  
                                 _RB5_ISR 1E96                                   _RB6_ISR 1E5E  
                                 _RB7_ISR 1DEE                                   _LAT_REG 0015  
               _RB6_InterruptHandler_HIGH 003F                                _btn_values 1001  
                       _EXT_INTX_Edge_Set 12AE                  _RB6_InterruptHandler_LOW 003D  
               ?_INT0_SetInterruptHandler 0063                        ?_EXT_INTX_Edge_Set 0063  
               ??_LOW_PRIORITY_INTERRUPTS 0060                                   __Hparam 0000  
                   RB4_ISR@FUNC_DETECTION 0059                     RB7_ISR@FUNC_DETECTION 005F  
                                 __Lparam 0000                     EXT_INTX_Intialize@ret 0070  
       EXT_INTX_Function_Initialize@INT_X 0065                       ??_EXT_INTX_Edge_Set 0065  
                            __psmallconst 1000                __end_of_gpio_pin_intialize 1D1C  
                                 __pcinit 1F06                                   __ramtop 1000  
                           relay_on@F3047 0050                                   __ptext0 1614  
                                 __ptext1 1998                                   __ptext2 1A32  
                                 __ptext3 1ACC                                   __ptext4 1CB4  
                                 __ptext5 13D6                                   __ptext6 1B66  
                                 __ptext7 1812                                   __ptext8 1F3C  
                                 __ptext9 14F6                       fp__INTERRUPT_FUNC_0 0000  
               ??_EXT_INTX_Disable_Helper 0065                            __pintcode_body 1018  
                    end_of_initialization 1F32                 __end_of_EXT_INTX_Edge_Set 13D6  
                _INT2_SetInterruptHandler 201E                      _EXT_INTX_Prioity_Set 1812  
                __end_of_INTERRUPT_FUNC_0 201E                                   int_func 1018  
                               i2_RB7_ISR 1E26                     gpio_pin_intialize@ret 006F  
                   gpio_pin_intialize@str 006C                                   postdec1 0FE5  
                                 postdec2 0FDD                                   postinc0 0FEE  
                                 postinc2 0FDE                 EXT_INTX_Prioity_Set@INT_X 0063  
                   _INT1_InterruptHandler 004B                                 _PORTBbits 0F81  
    __end_of_gpio_pin_direction_intialize 1614              _gpio_pin_direction_intialize 14F6  
                   ?_EXT_INTX_Prioity_Set 0063                                ?i2_RB7_ISR 0057  
                            _led_turn_off 1A32                     __end_of_led_intialize 1B66  
              __end_of_EXT_INTX_Intialize 1BE0                             __pidataCOMRAM 1DB6  
                     _EXT_INTX_Clear_Flag 1C4A                       start_initialization 1F06  
                           ??_led_turn_on 006E             ?_gpio_pin_direction_intialize 0063  
                 _EXT_INTX_Pin_Initialize 1F3C                      ?_EXT_INTX_Clear_Flag 0063  
                 i2RB7_ISR@FUNC_DETECTION 0059                           _EXT_INTX_Enable 171C  
                 EEPROM_READ_DATA@address 0063                   EXT_INTX_Intialize@INT_X 006E  
                                ?_RB4_ISR 0057                   led_intialize@LED_CONFIG 0070  
                                ?_RB5_ISR 0057                                  ?_RB6_ISR 0057  
                                ?_RB7_ISR 0057                               __pbssCOMRAM 0039  
        __end_of_INT0_SetInterruptHandler 2090                             __pcstackBANK0 0080  
                  ??_EXT_INTX_Prioity_Set 0065                       __end_of_led_turn_on 1A32  
                   _INT2_InterruptHandler 0049                     ??_EXT_INTX_Clear_Flag 0065  
         gpio_pin_direction_intialize@str 0063                               ??i2_RB7_ISR 0057  
         EXT_INTX_Function_Initialize@ret 0069              __end_of_InterruptManagerHigh 12AE  
                     led_intialize@LED_IN 0081                                 __pintcode 0008  
                             __pintcodelo 0018                               __smallconst 1000  
               _RB4_InterruptHandler_HIGH 0047                ??_INT2_SetInterruptHandler 0065  
                      led_turn_off@LED_IN 006F                 _RB7_InterruptHandler_HIGH 003B  
               ??_EXT_INTX_Pin_Initialize 006D                        _gpio_pin_intialize 1CB4  
                       _EEPROM_WRITE_DATA 1D6E                   __end_of_EXT_INTX_Enable 1812  
          ??_gpio_pin_direction_intialize 0065                        ?_EEPROM_WRITE_DATA 0057  
                _RB5_InterruptHandler_LOW 0041                                  _INT0_ISR 1FC8  
                                _INT1_ISR 1F9A                         ?_INTERRUPT_FUNC_0 0057  
                                _INT2_ISR 1F6C                                  _RB4_Flag 0030  
                                _RB5_Flag 002F                                  _RB6_Flag 002E  
                                _RB7_Flag 002D                       ?_gpio_pin_intialize 006C  
               ?_INT1_SetInterruptHandler 0063                                  i1u200_20 0050  
                      ??_INTERRUPT_FUNC_0 005B                                  i1u200_21 004C  
                                i1u201_20 0060                                  i1u201_21 005C  
                                i1u202_20 0078                                  i1u202_21 0074  
                                i1u203_20 0086                                  i1u203_21 0082  
                                i1u204_20 0094                                  i1u204_21 0090  
                                i1u205_20 00A4                                  i1u205_21 00A0  
                   RB6_ISR@FUNC_DETECTION 0059                                  i2u221_40 1DA8  
                                i2u221_41 1DA4                                  i1u198_20 0034  
                                i1u198_21 0030                                  i1u199_20 0042  
                                i2u222_45 1DB2                                  i1u199_21 003E  
                                i2u222_46 1DB4                                  i2u250_40 200A  
                                i2u330_40 109E                                  i2u250_41 2006  
                                i2u330_41 109A                                  i2u331_40 10AC  
                                i2u323_40 1030                                  i2u331_41 10A8  
                                i2u323_41 102C                                  i2u340_40 1144  
                                i2u332_40 10BC                                  i2u324_40 103E  
                                i2u340_41 1140                                  i2u332_41 10B8  
                                i2u324_41 103A                                  i2u341_40 115C  
                                i2u333_40 10D4                                  i2u325_40 1050  
                                i2u341_41 1158                                  i2u333_41 10D0  
                                i2u325_41 104C                                  i2u350_40 11F2  
                                i2u342_40 116A                                  i2u334_40 10E2  
                                i2u326_40 105E                                  i2u350_41 11EE  
                                i2u342_41 1166                                  i2u334_41 10DE  
                                i2u326_41 105A                                  i2u271_40 1FDC  
                                i2u351_40 1200                                  i2u343_40 1178  
                                i2u335_40 10F0                                  i2u327_40 1070  
                                i2u271_41 1FD8                                  i2u351_41 11FC  
                                i2u343_41 1174                                  i2u335_41 10EC  
                                i2u327_41 106C                                  i2u360_40 1298  
                                i2u352_40 1210                                  i2u344_40 1188  
                                i2u336_40 1100                                  i2u328_40 107E  
                                i2u360_41 1294                                  i2u352_41 120C  
                                i2u344_41 1184                                  i2u336_41 10FC  
                                i2u328_41 107A                                  i2u272_48 1FE2  
                                i2u273_40 1FAE                                  i2u353_40 1228  
                                i2u345_40 11A0                                  i2u337_40 1118  
                                i2u329_40 1090                                  i2u272_49 1FF4  
                                i2u273_41 1FAA                                  i2u353_41 1224  
                                i2u345_41 119C                                  i2u337_41 1114  
                                i2u329_41 108C                                  i2u354_40 1236  
                                i2u346_40 11AE                                  i2u338_40 1126  
                                i2u354_41 1232                                  i2u346_41 11AA  
                                i2u338_41 1122                                  i2u274_48 1FB4  
                                i2u275_40 1F80                                  i2u355_40 1244  
                                i2u347_40 11BC                                  i2u339_40 1134  
                                i2u274_49 1FC6                                  i2u275_41 1F7C  
                                i2u355_41 1240                                  i2u347_41 11B8  
                                i2u339_41 1130                                  i2u356_40 1254  
                                i2u348_40 11CC                                  i2u356_41 1250  
                                i2u348_41 11C8                                  i2u276_48 1F86  
                                i2u357_40 126C                                  i2u349_40 11E4  
                                i2u276_49 1F98                                  i2u357_41 1268  
                                i2u349_41 11E0                                  i2u358_40 127A  
                                i2u358_41 1276                                  i2u359_40 1288  
                                i2u359_41 1284                       ??_EEPROM_WRITE_DATA 005A  
                                _RCONbits 0FD0                                  _PORT_REG 0001  
                                _TRIS_REG 000B                      ??_gpio_pin_intialize 006E  
                             _led_turn_on 1998                 __end_of_EEPROM_WRITE_DATA 1DB6  
                 gpio_pin_write_logic@LOG 0065                   gpio_pin_write_logic@str 0063  
                             _INTCON2bits 0FF1                               _INTCON3bits 0FF0  
                               copy_data0 1F1A                  _INT0_SetInterruptHandler 206A  
                ?_LOW_PRIORITY_INTERRUPTS 0057                                _EECON1bits 0FA6  
                        _EEPROM_READ_DATA 1D1C                                  __Hrparam 0000  
                                __Lrparam 0000                        __end_of_btn_values 1011  
                ?_EXT_INTX_Disable_Helper 0063                        led_intialize@F3048 0055  
                      _EXT_INTX_Intialize 1B66                      _InterruptManagerHigh 0008  
                                __ptext10 18EA                                  __ptext11 201E  
                                __ptext20 1DEE                                  __ptext12 2044  
                                __ptext13 206A                                  __ptext30 1D6E  
                                __ptext22 1E26                                  __ptext14 171C  
                                __ptext31 0000                                  __ptext23 1E5E  
                                __ptext15 12AE                                  __ptext24 1E96  
                                __ptext16 1BE0                                  __ptext25 1ECE  
                                __ptext17 1C4A                                  __ptext26 1F6C  
                                __ptext18 1D1C                                  __ptext27 1F9A  
                                __ptext28 1FC8                                  __ptext29 1FF6  
                     ?_EXT_INTX_Intialize 006E                          ?_EXT_INTX_Enable 0063  
                                _keypad_1 001F                      EXT_INTX_Enable@INT_X 0063  
                          relay_off@F3052 004F                                  isa$xinst 0000  
                EXT_INTX_Clear_Flag@INT_X 0063                     EEPROM_WRITE_DATA@data 0059  
                                int$flags 0073                      ??_EXT_INTX_Intialize 0070  
                              _INTCONbits 0FF2                EXT_INTX_Pin_Initialize@ret 006D  
                   ?_InterruptManagerHigh 0057           __end_of_LOW_PRIORITY_INTERRUPTS 00BE  
            __end_of_gpio_pin_write_logic 14F6                                  intlevel1 0000  
                                intlevel2 0000                    EXT_INTX_Edge_Set@INT_X 0063  
                          _program_number 0056           __end_of_EXT_INTX_Disable_Helper 1C4A  
                    EEPROM_READ_DATA@data 0065          __end_of_INT1_SetInterruptHandler 206A  
                EEPROM_WRITE_DATA@address 0057               __end_of_EXT_INTX_Clear_Flag 1CB4  
    __end_of_EXT_INTX_Function_Initialize 1998              _EXT_INTX_Function_Initialize 18EA  
